
strings2.exe_:     file format pei-i386


Disassembly of section .text:

00401000 <.text>:
  401000:	55                   	push   %ebp
  401001:	8b ec                	mov    %esp,%ebp
  401003:	83 ec 50             	sub    $0x50,%esp
  401006:	8b 45 08             	mov    0x8(%ebp),%eax
  401009:	8b 08                	mov    (%eax),%ecx
  40100b:	89 4d bc             	mov    %ecx,-0x44(%ebp)
  40100e:	8b 55 08             	mov    0x8(%ebp),%edx
  401011:	8b 42 04             	mov    0x4(%edx),%eax
  401014:	89 45 b8             	mov    %eax,-0x48(%ebp)
  401017:	8b 4d 08             	mov    0x8(%ebp),%ecx
  40101a:	8b 51 08             	mov    0x8(%ecx),%edx
  40101d:	89 55 b0             	mov    %edx,-0x50(%ebp)
  401020:	8b 45 08             	mov    0x8(%ebp),%eax
  401023:	8b 48 0c             	mov    0xc(%eax),%ecx
  401026:	89 4d b4             	mov    %ecx,-0x4c(%ebp)
  401029:	6a 40                	push   $0x40
  40102b:	8b 55 0c             	mov    0xc(%ebp),%edx
  40102e:	52                   	push   %edx
  40102f:	8d 45 c0             	lea    -0x40(%ebp),%eax
  401032:	50                   	push   %eax
  401033:	e8 b8 0e 00 00       	call   0x401ef0
  401038:	83 c4 0c             	add    $0xc,%esp
  40103b:	8b 4d b8             	mov    -0x48(%ebp),%ecx
  40103e:	23 4d b0             	and    -0x50(%ebp),%ecx
  401041:	8b 55 b8             	mov    -0x48(%ebp),%edx
  401044:	f7 d2                	not    %edx
  401046:	23 55 b4             	and    -0x4c(%ebp),%edx
  401049:	0b ca                	or     %edx,%ecx
  40104b:	03 4d c0             	add    -0x40(%ebp),%ecx
  40104e:	8b 45 bc             	mov    -0x44(%ebp),%eax
  401051:	8d 8c 08 78 a4 6a d7 	lea    -0x28955b88(%eax,%ecx,1),%ecx
  401058:	89 4d bc             	mov    %ecx,-0x44(%ebp)
  40105b:	8b 55 bc             	mov    -0x44(%ebp),%edx
  40105e:	c1 e2 07             	shl    $0x7,%edx
  401061:	8b 45 bc             	mov    -0x44(%ebp),%eax
  401064:	c1 e8 19             	shr    $0x19,%eax
  401067:	0b d0                	or     %eax,%edx
  401069:	89 55 bc             	mov    %edx,-0x44(%ebp)
  40106c:	8b 4d bc             	mov    -0x44(%ebp),%ecx
  40106f:	03 4d b8             	add    -0x48(%ebp),%ecx
  401072:	89 4d bc             	mov    %ecx,-0x44(%ebp)
  401075:	8b 55 bc             	mov    -0x44(%ebp),%edx
  401078:	23 55 b8             	and    -0x48(%ebp),%edx
  40107b:	8b 45 bc             	mov    -0x44(%ebp),%eax
  40107e:	f7 d0                	not    %eax
  401080:	23 45 b0             	and    -0x50(%ebp),%eax
  401083:	0b d0                	or     %eax,%edx
  401085:	03 55 c4             	add    -0x3c(%ebp),%edx
  401088:	8b 4d b4             	mov    -0x4c(%ebp),%ecx
  40108b:	8d 94 11 56 b7 c7 e8 	lea    -0x173848aa(%ecx,%edx,1),%edx
  401092:	89 55 b4             	mov    %edx,-0x4c(%ebp)
  401095:	8b 45 b4             	mov    -0x4c(%ebp),%eax
  401098:	c1 e0 0c             	shl    $0xc,%eax
  40109b:	8b 4d b4             	mov    -0x4c(%ebp),%ecx
  40109e:	c1 e9 14             	shr    $0x14,%ecx
  4010a1:	0b c1                	or     %ecx,%eax
  4010a3:	89 45 b4             	mov    %eax,-0x4c(%ebp)
  4010a6:	8b 55 b4             	mov    -0x4c(%ebp),%edx
  4010a9:	03 55 bc             	add    -0x44(%ebp),%edx
  4010ac:	89 55 b4             	mov    %edx,-0x4c(%ebp)
  4010af:	8b 45 b4             	mov    -0x4c(%ebp),%eax
  4010b2:	23 45 bc             	and    -0x44(%ebp),%eax
  4010b5:	8b 4d b4             	mov    -0x4c(%ebp),%ecx
  4010b8:	f7 d1                	not    %ecx
  4010ba:	23 4d b8             	and    -0x48(%ebp),%ecx
  4010bd:	0b c1                	or     %ecx,%eax
  4010bf:	03 45 c8             	add    -0x38(%ebp),%eax
  4010c2:	8b 55 b0             	mov    -0x50(%ebp),%edx
  4010c5:	8d 84 02 db 70 20 24 	lea    0x242070db(%edx,%eax,1),%eax
  4010cc:	89 45 b0             	mov    %eax,-0x50(%ebp)
  4010cf:	8b 4d b0             	mov    -0x50(%ebp),%ecx
  4010d2:	c1 e1 11             	shl    $0x11,%ecx
  4010d5:	8b 55 b0             	mov    -0x50(%ebp),%edx
  4010d8:	c1 ea 0f             	shr    $0xf,%edx
  4010db:	0b ca                	or     %edx,%ecx
  4010dd:	89 4d b0             	mov    %ecx,-0x50(%ebp)
  4010e0:	8b 45 b0             	mov    -0x50(%ebp),%eax
  4010e3:	03 45 b4             	add    -0x4c(%ebp),%eax
  4010e6:	89 45 b0             	mov    %eax,-0x50(%ebp)
  4010e9:	8b 4d b0             	mov    -0x50(%ebp),%ecx
  4010ec:	23 4d b4             	and    -0x4c(%ebp),%ecx
  4010ef:	8b 55 b0             	mov    -0x50(%ebp),%edx
  4010f2:	f7 d2                	not    %edx
  4010f4:	23 55 bc             	and    -0x44(%ebp),%edx
  4010f7:	0b ca                	or     %edx,%ecx
  4010f9:	03 4d cc             	add    -0x34(%ebp),%ecx
  4010fc:	8b 45 b8             	mov    -0x48(%ebp),%eax
  4010ff:	8d 8c 08 ee ce bd c1 	lea    -0x3e423112(%eax,%ecx,1),%ecx
  401106:	89 4d b8             	mov    %ecx,-0x48(%ebp)
  401109:	8b 55 b8             	mov    -0x48(%ebp),%edx
  40110c:	c1 e2 16             	shl    $0x16,%edx
  40110f:	8b 45 b8             	mov    -0x48(%ebp),%eax
  401112:	c1 e8 0a             	shr    $0xa,%eax
  401115:	0b d0                	or     %eax,%edx
  401117:	89 55 b8             	mov    %edx,-0x48(%ebp)
  40111a:	8b 4d b8             	mov    -0x48(%ebp),%ecx
  40111d:	03 4d b0             	add    -0x50(%ebp),%ecx
  401120:	89 4d b8             	mov    %ecx,-0x48(%ebp)
  401123:	8b 55 b8             	mov    -0x48(%ebp),%edx
  401126:	23 55 b0             	and    -0x50(%ebp),%edx
  401129:	8b 45 b8             	mov    -0x48(%ebp),%eax
  40112c:	f7 d0                	not    %eax
  40112e:	23 45 b4             	and    -0x4c(%ebp),%eax
  401131:	0b d0                	or     %eax,%edx
  401133:	03 55 d0             	add    -0x30(%ebp),%edx
  401136:	8b 4d bc             	mov    -0x44(%ebp),%ecx
  401139:	8d 94 11 af 0f 7c f5 	lea    -0xa83f051(%ecx,%edx,1),%edx
  401140:	89 55 bc             	mov    %edx,-0x44(%ebp)
  401143:	8b 45 bc             	mov    -0x44(%ebp),%eax
  401146:	c1 e0 07             	shl    $0x7,%eax
  401149:	8b 4d bc             	mov    -0x44(%ebp),%ecx
  40114c:	c1 e9 19             	shr    $0x19,%ecx
  40114f:	0b c1                	or     %ecx,%eax
  401151:	89 45 bc             	mov    %eax,-0x44(%ebp)
  401154:	8b 55 bc             	mov    -0x44(%ebp),%edx
  401157:	03 55 b8             	add    -0x48(%ebp),%edx
  40115a:	89 55 bc             	mov    %edx,-0x44(%ebp)
  40115d:	8b 45 bc             	mov    -0x44(%ebp),%eax
  401160:	23 45 b8             	and    -0x48(%ebp),%eax
  401163:	8b 4d bc             	mov    -0x44(%ebp),%ecx
  401166:	f7 d1                	not    %ecx
  401168:	23 4d b0             	and    -0x50(%ebp),%ecx
  40116b:	0b c1                	or     %ecx,%eax
  40116d:	03 45 d4             	add    -0x2c(%ebp),%eax
  401170:	8b 55 b4             	mov    -0x4c(%ebp),%edx
  401173:	8d 84 02 2a c6 87 47 	lea    0x4787c62a(%edx,%eax,1),%eax
  40117a:	89 45 b4             	mov    %eax,-0x4c(%ebp)
  40117d:	8b 4d b4             	mov    -0x4c(%ebp),%ecx
  401180:	c1 e1 0c             	shl    $0xc,%ecx
  401183:	8b 55 b4             	mov    -0x4c(%ebp),%edx
  401186:	c1 ea 14             	shr    $0x14,%edx
  401189:	0b ca                	or     %edx,%ecx
  40118b:	89 4d b4             	mov    %ecx,-0x4c(%ebp)
  40118e:	8b 45 b4             	mov    -0x4c(%ebp),%eax
  401191:	03 45 bc             	add    -0x44(%ebp),%eax
  401194:	89 45 b4             	mov    %eax,-0x4c(%ebp)
  401197:	8b 4d b4             	mov    -0x4c(%ebp),%ecx
  40119a:	23 4d bc             	and    -0x44(%ebp),%ecx
  40119d:	8b 55 b4             	mov    -0x4c(%ebp),%edx
  4011a0:	f7 d2                	not    %edx
  4011a2:	23 55 b8             	and    -0x48(%ebp),%edx
  4011a5:	0b ca                	or     %edx,%ecx
  4011a7:	03 4d d8             	add    -0x28(%ebp),%ecx
  4011aa:	8b 45 b0             	mov    -0x50(%ebp),%eax
  4011ad:	8d 8c 08 13 46 30 a8 	lea    -0x57cfb9ed(%eax,%ecx,1),%ecx
  4011b4:	89 4d b0             	mov    %ecx,-0x50(%ebp)
  4011b7:	8b 55 b0             	mov    -0x50(%ebp),%edx
  4011ba:	c1 e2 11             	shl    $0x11,%edx
  4011bd:	8b 45 b0             	mov    -0x50(%ebp),%eax
  4011c0:	c1 e8 0f             	shr    $0xf,%eax
  4011c3:	0b d0                	or     %eax,%edx
  4011c5:	89 55 b0             	mov    %edx,-0x50(%ebp)
  4011c8:	8b 4d b0             	mov    -0x50(%ebp),%ecx
  4011cb:	03 4d b4             	add    -0x4c(%ebp),%ecx
  4011ce:	89 4d b0             	mov    %ecx,-0x50(%ebp)
  4011d1:	8b 55 b0             	mov    -0x50(%ebp),%edx
  4011d4:	23 55 b4             	and    -0x4c(%ebp),%edx
  4011d7:	8b 45 b0             	mov    -0x50(%ebp),%eax
  4011da:	f7 d0                	not    %eax
  4011dc:	23 45 bc             	and    -0x44(%ebp),%eax
  4011df:	0b d0                	or     %eax,%edx
  4011e1:	03 55 dc             	add    -0x24(%ebp),%edx
  4011e4:	8b 4d b8             	mov    -0x48(%ebp),%ecx
  4011e7:	8d 94 11 01 95 46 fd 	lea    -0x2b96aff(%ecx,%edx,1),%edx
  4011ee:	89 55 b8             	mov    %edx,-0x48(%ebp)
  4011f1:	8b 45 b8             	mov    -0x48(%ebp),%eax
  4011f4:	c1 e0 16             	shl    $0x16,%eax
  4011f7:	8b 4d b8             	mov    -0x48(%ebp),%ecx
  4011fa:	c1 e9 0a             	shr    $0xa,%ecx
  4011fd:	0b c1                	or     %ecx,%eax
  4011ff:	89 45 b8             	mov    %eax,-0x48(%ebp)
  401202:	8b 55 b8             	mov    -0x48(%ebp),%edx
  401205:	03 55 b0             	add    -0x50(%ebp),%edx
  401208:	89 55 b8             	mov    %edx,-0x48(%ebp)
  40120b:	8b 45 b8             	mov    -0x48(%ebp),%eax
  40120e:	23 45 b0             	and    -0x50(%ebp),%eax
  401211:	8b 4d b8             	mov    -0x48(%ebp),%ecx
  401214:	f7 d1                	not    %ecx
  401216:	23 4d b4             	and    -0x4c(%ebp),%ecx
  401219:	0b c1                	or     %ecx,%eax
  40121b:	03 45 e0             	add    -0x20(%ebp),%eax
  40121e:	8b 55 bc             	mov    -0x44(%ebp),%edx
  401221:	8d 84 02 d8 98 80 69 	lea    0x698098d8(%edx,%eax,1),%eax
  401228:	89 45 bc             	mov    %eax,-0x44(%ebp)
  40122b:	8b 4d bc             	mov    -0x44(%ebp),%ecx
  40122e:	c1 e1 07             	shl    $0x7,%ecx
  401231:	8b 55 bc             	mov    -0x44(%ebp),%edx
  401234:	c1 ea 19             	shr    $0x19,%edx
  401237:	0b ca                	or     %edx,%ecx
  401239:	89 4d bc             	mov    %ecx,-0x44(%ebp)
  40123c:	8b 45 bc             	mov    -0x44(%ebp),%eax
  40123f:	03 45 b8             	add    -0x48(%ebp),%eax
  401242:	89 45 bc             	mov    %eax,-0x44(%ebp)
  401245:	8b 4d bc             	mov    -0x44(%ebp),%ecx
  401248:	23 4d b8             	and    -0x48(%ebp),%ecx
  40124b:	8b 55 bc             	mov    -0x44(%ebp),%edx
  40124e:	f7 d2                	not    %edx
  401250:	23 55 b0             	and    -0x50(%ebp),%edx
  401253:	0b ca                	or     %edx,%ecx
  401255:	03 4d e4             	add    -0x1c(%ebp),%ecx
  401258:	8b 45 b4             	mov    -0x4c(%ebp),%eax
  40125b:	8d 8c 08 af f7 44 8b 	lea    -0x74bb0851(%eax,%ecx,1),%ecx
  401262:	89 4d b4             	mov    %ecx,-0x4c(%ebp)
  401265:	8b 55 b4             	mov    -0x4c(%ebp),%edx
  401268:	c1 e2 0c             	shl    $0xc,%edx
  40126b:	8b 45 b4             	mov    -0x4c(%ebp),%eax
  40126e:	c1 e8 14             	shr    $0x14,%eax
  401271:	0b d0                	or     %eax,%edx
  401273:	89 55 b4             	mov    %edx,-0x4c(%ebp)
  401276:	8b 4d b4             	mov    -0x4c(%ebp),%ecx
  401279:	03 4d bc             	add    -0x44(%ebp),%ecx
  40127c:	89 4d b4             	mov    %ecx,-0x4c(%ebp)
  40127f:	8b 55 b4             	mov    -0x4c(%ebp),%edx
  401282:	23 55 bc             	and    -0x44(%ebp),%edx
  401285:	8b 45 b4             	mov    -0x4c(%ebp),%eax
  401288:	f7 d0                	not    %eax
  40128a:	23 45 b8             	and    -0x48(%ebp),%eax
  40128d:	0b d0                	or     %eax,%edx
  40128f:	03 55 e8             	add    -0x18(%ebp),%edx
  401292:	8b 4d b0             	mov    -0x50(%ebp),%ecx
  401295:	8d 94 11 b1 5b ff ff 	lea    -0xa44f(%ecx,%edx,1),%edx
  40129c:	89 55 b0             	mov    %edx,-0x50(%ebp)
  40129f:	8b 45 b0             	mov    -0x50(%ebp),%eax
  4012a2:	c1 e0 11             	shl    $0x11,%eax
  4012a5:	8b 4d b0             	mov    -0x50(%ebp),%ecx
  4012a8:	c1 e9 0f             	shr    $0xf,%ecx
  4012ab:	0b c1                	or     %ecx,%eax
  4012ad:	89 45 b0             	mov    %eax,-0x50(%ebp)
  4012b0:	8b 55 b0             	mov    -0x50(%ebp),%edx
  4012b3:	03 55 b4             	add    -0x4c(%ebp),%edx
  4012b6:	89 55 b0             	mov    %edx,-0x50(%ebp)
  4012b9:	8b 45 b0             	mov    -0x50(%ebp),%eax
  4012bc:	23 45 b4             	and    -0x4c(%ebp),%eax
  4012bf:	8b 4d b0             	mov    -0x50(%ebp),%ecx
  4012c2:	f7 d1                	not    %ecx
  4012c4:	23 4d bc             	and    -0x44(%ebp),%ecx
  4012c7:	0b c1                	or     %ecx,%eax
  4012c9:	03 45 ec             	add    -0x14(%ebp),%eax
  4012cc:	8b 55 b8             	mov    -0x48(%ebp),%edx
  4012cf:	8d 84 02 be d7 5c 89 	lea    -0x76a32842(%edx,%eax,1),%eax
  4012d6:	89 45 b8             	mov    %eax,-0x48(%ebp)
  4012d9:	8b 4d b8             	mov    -0x48(%ebp),%ecx
  4012dc:	c1 e1 16             	shl    $0x16,%ecx
  4012df:	8b 55 b8             	mov    -0x48(%ebp),%edx
  4012e2:	c1 ea 0a             	shr    $0xa,%edx
  4012e5:	0b ca                	or     %edx,%ecx
  4012e7:	89 4d b8             	mov    %ecx,-0x48(%ebp)
  4012ea:	8b 45 b8             	mov    -0x48(%ebp),%eax
  4012ed:	03 45 b0             	add    -0x50(%ebp),%eax
  4012f0:	89 45 b8             	mov    %eax,-0x48(%ebp)
  4012f3:	8b 4d b8             	mov    -0x48(%ebp),%ecx
  4012f6:	23 4d b0             	and    -0x50(%ebp),%ecx
  4012f9:	8b 55 b8             	mov    -0x48(%ebp),%edx
  4012fc:	f7 d2                	not    %edx
  4012fe:	23 55 b4             	and    -0x4c(%ebp),%edx
  401301:	0b ca                	or     %edx,%ecx
  401303:	03 4d f0             	add    -0x10(%ebp),%ecx
  401306:	8b 45 bc             	mov    -0x44(%ebp),%eax
  401309:	8d 8c 08 22 11 90 6b 	lea    0x6b901122(%eax,%ecx,1),%ecx
  401310:	89 4d bc             	mov    %ecx,-0x44(%ebp)
  401313:	8b 55 bc             	mov    -0x44(%ebp),%edx
  401316:	c1 e2 07             	shl    $0x7,%edx
  401319:	8b 45 bc             	mov    -0x44(%ebp),%eax
  40131c:	c1 e8 19             	shr    $0x19,%eax
  40131f:	0b d0                	or     %eax,%edx
  401321:	89 55 bc             	mov    %edx,-0x44(%ebp)
  401324:	8b 4d bc             	mov    -0x44(%ebp),%ecx
  401327:	03 4d b8             	add    -0x48(%ebp),%ecx
  40132a:	89 4d bc             	mov    %ecx,-0x44(%ebp)
  40132d:	8b 55 bc             	mov    -0x44(%ebp),%edx
  401330:	23 55 b8             	and    -0x48(%ebp),%edx
  401333:	8b 45 bc             	mov    -0x44(%ebp),%eax
  401336:	f7 d0                	not    %eax
  401338:	23 45 b0             	and    -0x50(%ebp),%eax
  40133b:	0b d0                	or     %eax,%edx
  40133d:	03 55 f4             	add    -0xc(%ebp),%edx
  401340:	8b 4d b4             	mov    -0x4c(%ebp),%ecx
  401343:	8d 94 11 93 71 98 fd 	lea    -0x2678e6d(%ecx,%edx,1),%edx
  40134a:	89 55 b4             	mov    %edx,-0x4c(%ebp)
  40134d:	8b 45 b4             	mov    -0x4c(%ebp),%eax
  401350:	c1 e0 0c             	shl    $0xc,%eax
  401353:	8b 4d b4             	mov    -0x4c(%ebp),%ecx
  401356:	c1 e9 14             	shr    $0x14,%ecx
  401359:	0b c1                	or     %ecx,%eax
  40135b:	89 45 b4             	mov    %eax,-0x4c(%ebp)
  40135e:	8b 55 b4             	mov    -0x4c(%ebp),%edx
  401361:	03 55 bc             	add    -0x44(%ebp),%edx
  401364:	89 55 b4             	mov    %edx,-0x4c(%ebp)
  401367:	8b 45 b4             	mov    -0x4c(%ebp),%eax
  40136a:	23 45 bc             	and    -0x44(%ebp),%eax
  40136d:	8b 4d b4             	mov    -0x4c(%ebp),%ecx
  401370:	f7 d1                	not    %ecx
  401372:	23 4d b8             	and    -0x48(%ebp),%ecx
  401375:	0b c1                	or     %ecx,%eax
  401377:	03 45 f8             	add    -0x8(%ebp),%eax
  40137a:	8b 55 b0             	mov    -0x50(%ebp),%edx
  40137d:	8d 84 02 8e 43 79 a6 	lea    -0x5986bc72(%edx,%eax,1),%eax
  401384:	89 45 b0             	mov    %eax,-0x50(%ebp)
  401387:	8b 4d b0             	mov    -0x50(%ebp),%ecx
  40138a:	c1 e1 11             	shl    $0x11,%ecx
  40138d:	8b 55 b0             	mov    -0x50(%ebp),%edx
  401390:	c1 ea 0f             	shr    $0xf,%edx
  401393:	0b ca                	or     %edx,%ecx
  401395:	89 4d b0             	mov    %ecx,-0x50(%ebp)
  401398:	8b 45 b0             	mov    -0x50(%ebp),%eax
  40139b:	03 45 b4             	add    -0x4c(%ebp),%eax
  40139e:	89 45 b0             	mov    %eax,-0x50(%ebp)
  4013a1:	8b 4d b0             	mov    -0x50(%ebp),%ecx
  4013a4:	23 4d b4             	and    -0x4c(%ebp),%ecx
  4013a7:	8b 55 b0             	mov    -0x50(%ebp),%edx
  4013aa:	f7 d2                	not    %edx
  4013ac:	23 55 bc             	and    -0x44(%ebp),%edx
  4013af:	0b ca                	or     %edx,%ecx
  4013b1:	03 4d fc             	add    -0x4(%ebp),%ecx
  4013b4:	8b 45 b8             	mov    -0x48(%ebp),%eax
  4013b7:	8d 8c 08 21 08 b4 49 	lea    0x49b40821(%eax,%ecx,1),%ecx
  4013be:	89 4d b8             	mov    %ecx,-0x48(%ebp)
  4013c1:	8b 55 b8             	mov    -0x48(%ebp),%edx
  4013c4:	c1 e2 16             	shl    $0x16,%edx
  4013c7:	8b 45 b8             	mov    -0x48(%ebp),%eax
  4013ca:	c1 e8 0a             	shr    $0xa,%eax
  4013cd:	0b d0                	or     %eax,%edx
  4013cf:	89 55 b8             	mov    %edx,-0x48(%ebp)
  4013d2:	8b 4d b8             	mov    -0x48(%ebp),%ecx
  4013d5:	03 4d b0             	add    -0x50(%ebp),%ecx
  4013d8:	89 4d b8             	mov    %ecx,-0x48(%ebp)
  4013db:	8b 55 b8             	mov    -0x48(%ebp),%edx
  4013de:	23 55 b4             	and    -0x4c(%ebp),%edx
  4013e1:	8b 45 b4             	mov    -0x4c(%ebp),%eax
  4013e4:	f7 d0                	not    %eax
  4013e6:	23 45 b0             	and    -0x50(%ebp),%eax
  4013e9:	0b d0                	or     %eax,%edx
  4013eb:	03 55 c4             	add    -0x3c(%ebp),%edx
  4013ee:	8b 4d bc             	mov    -0x44(%ebp),%ecx
  4013f1:	8d 94 11 62 25 1e f6 	lea    -0x9e1da9e(%ecx,%edx,1),%edx
  4013f8:	89 55 bc             	mov    %edx,-0x44(%ebp)
  4013fb:	8b 45 bc             	mov    -0x44(%ebp),%eax
  4013fe:	c1 e0 05             	shl    $0x5,%eax
  401401:	8b 4d bc             	mov    -0x44(%ebp),%ecx
  401404:	c1 e9 1b             	shr    $0x1b,%ecx
  401407:	0b c1                	or     %ecx,%eax
  401409:	89 45 bc             	mov    %eax,-0x44(%ebp)
  40140c:	8b 55 bc             	mov    -0x44(%ebp),%edx
  40140f:	03 55 b8             	add    -0x48(%ebp),%edx
  401412:	89 55 bc             	mov    %edx,-0x44(%ebp)
  401415:	8b 45 bc             	mov    -0x44(%ebp),%eax
  401418:	23 45 b0             	and    -0x50(%ebp),%eax
  40141b:	8b 4d b0             	mov    -0x50(%ebp),%ecx
  40141e:	f7 d1                	not    %ecx
  401420:	23 4d b8             	and    -0x48(%ebp),%ecx
  401423:	0b c1                	or     %ecx,%eax
  401425:	03 45 d8             	add    -0x28(%ebp),%eax
  401428:	8b 55 b4             	mov    -0x4c(%ebp),%edx
  40142b:	8d 84 02 40 b3 40 c0 	lea    -0x3fbf4cc0(%edx,%eax,1),%eax
  401432:	89 45 b4             	mov    %eax,-0x4c(%ebp)
  401435:	8b 4d b4             	mov    -0x4c(%ebp),%ecx
  401438:	c1 e1 09             	shl    $0x9,%ecx
  40143b:	8b 55 b4             	mov    -0x4c(%ebp),%edx
  40143e:	c1 ea 17             	shr    $0x17,%edx
  401441:	0b ca                	or     %edx,%ecx
  401443:	89 4d b4             	mov    %ecx,-0x4c(%ebp)
  401446:	8b 45 b4             	mov    -0x4c(%ebp),%eax
  401449:	03 45 bc             	add    -0x44(%ebp),%eax
  40144c:	89 45 b4             	mov    %eax,-0x4c(%ebp)
  40144f:	8b 4d b4             	mov    -0x4c(%ebp),%ecx
  401452:	23 4d b8             	and    -0x48(%ebp),%ecx
  401455:	8b 55 b8             	mov    -0x48(%ebp),%edx
  401458:	f7 d2                	not    %edx
  40145a:	23 55 bc             	and    -0x44(%ebp),%edx
  40145d:	0b ca                	or     %edx,%ecx
  40145f:	03 4d ec             	add    -0x14(%ebp),%ecx
  401462:	8b 45 b0             	mov    -0x50(%ebp),%eax
  401465:	8d 8c 08 51 5a 5e 26 	lea    0x265e5a51(%eax,%ecx,1),%ecx
  40146c:	89 4d b0             	mov    %ecx,-0x50(%ebp)
  40146f:	8b 55 b0             	mov    -0x50(%ebp),%edx
  401472:	c1 e2 0e             	shl    $0xe,%edx
  401475:	8b 45 b0             	mov    -0x50(%ebp),%eax
  401478:	c1 e8 12             	shr    $0x12,%eax
  40147b:	0b d0                	or     %eax,%edx
  40147d:	89 55 b0             	mov    %edx,-0x50(%ebp)
  401480:	8b 4d b0             	mov    -0x50(%ebp),%ecx
  401483:	03 4d b4             	add    -0x4c(%ebp),%ecx
  401486:	89 4d b0             	mov    %ecx,-0x50(%ebp)
  401489:	8b 55 b0             	mov    -0x50(%ebp),%edx
  40148c:	23 55 bc             	and    -0x44(%ebp),%edx
  40148f:	8b 45 bc             	mov    -0x44(%ebp),%eax
  401492:	f7 d0                	not    %eax
  401494:	23 45 b4             	and    -0x4c(%ebp),%eax
  401497:	0b d0                	or     %eax,%edx
  401499:	03 55 c0             	add    -0x40(%ebp),%edx
  40149c:	8b 4d b8             	mov    -0x48(%ebp),%ecx
  40149f:	8d 94 11 aa c7 b6 e9 	lea    -0x16493856(%ecx,%edx,1),%edx
  4014a6:	89 55 b8             	mov    %edx,-0x48(%ebp)
  4014a9:	8b 45 b8             	mov    -0x48(%ebp),%eax
  4014ac:	c1 e0 14             	shl    $0x14,%eax
  4014af:	8b 4d b8             	mov    -0x48(%ebp),%ecx
  4014b2:	c1 e9 0c             	shr    $0xc,%ecx
  4014b5:	0b c1                	or     %ecx,%eax
  4014b7:	89 45 b8             	mov    %eax,-0x48(%ebp)
  4014ba:	8b 55 b8             	mov    -0x48(%ebp),%edx
  4014bd:	03 55 b0             	add    -0x50(%ebp),%edx
  4014c0:	89 55 b8             	mov    %edx,-0x48(%ebp)
  4014c3:	8b 45 b8             	mov    -0x48(%ebp),%eax
  4014c6:	23 45 b4             	and    -0x4c(%ebp),%eax
  4014c9:	8b 4d b4             	mov    -0x4c(%ebp),%ecx
  4014cc:	f7 d1                	not    %ecx
  4014ce:	23 4d b0             	and    -0x50(%ebp),%ecx
  4014d1:	0b c1                	or     %ecx,%eax
  4014d3:	03 45 d4             	add    -0x2c(%ebp),%eax
  4014d6:	8b 55 bc             	mov    -0x44(%ebp),%edx
  4014d9:	8d 84 02 5d 10 2f d6 	lea    -0x29d0efa3(%edx,%eax,1),%eax
  4014e0:	89 45 bc             	mov    %eax,-0x44(%ebp)
  4014e3:	8b 4d bc             	mov    -0x44(%ebp),%ecx
  4014e6:	c1 e1 05             	shl    $0x5,%ecx
  4014e9:	8b 55 bc             	mov    -0x44(%ebp),%edx
  4014ec:	c1 ea 1b             	shr    $0x1b,%edx
  4014ef:	0b ca                	or     %edx,%ecx
  4014f1:	89 4d bc             	mov    %ecx,-0x44(%ebp)
  4014f4:	8b 45 bc             	mov    -0x44(%ebp),%eax
  4014f7:	03 45 b8             	add    -0x48(%ebp),%eax
  4014fa:	89 45 bc             	mov    %eax,-0x44(%ebp)
  4014fd:	8b 4d bc             	mov    -0x44(%ebp),%ecx
  401500:	23 4d b0             	and    -0x50(%ebp),%ecx
  401503:	8b 55 b0             	mov    -0x50(%ebp),%edx
  401506:	f7 d2                	not    %edx
  401508:	23 55 b8             	and    -0x48(%ebp),%edx
  40150b:	0b ca                	or     %edx,%ecx
  40150d:	03 4d e8             	add    -0x18(%ebp),%ecx
  401510:	8b 45 b4             	mov    -0x4c(%ebp),%eax
  401513:	8d 8c 08 53 14 44 02 	lea    0x2441453(%eax,%ecx,1),%ecx
  40151a:	89 4d b4             	mov    %ecx,-0x4c(%ebp)
  40151d:	8b 55 b4             	mov    -0x4c(%ebp),%edx
  401520:	c1 e2 09             	shl    $0x9,%edx
  401523:	8b 45 b4             	mov    -0x4c(%ebp),%eax
  401526:	c1 e8 17             	shr    $0x17,%eax
  401529:	0b d0                	or     %eax,%edx
  40152b:	89 55 b4             	mov    %edx,-0x4c(%ebp)
  40152e:	8b 4d b4             	mov    -0x4c(%ebp),%ecx
  401531:	03 4d bc             	add    -0x44(%ebp),%ecx
  401534:	89 4d b4             	mov    %ecx,-0x4c(%ebp)
  401537:	8b 55 b4             	mov    -0x4c(%ebp),%edx
  40153a:	23 55 b8             	and    -0x48(%ebp),%edx
  40153d:	8b 45 b8             	mov    -0x48(%ebp),%eax
  401540:	f7 d0                	not    %eax
  401542:	23 45 bc             	and    -0x44(%ebp),%eax
  401545:	0b d0                	or     %eax,%edx
  401547:	03 55 fc             	add    -0x4(%ebp),%edx
  40154a:	8b 4d b0             	mov    -0x50(%ebp),%ecx
  40154d:	8d 94 11 81 e6 a1 d8 	lea    -0x275e197f(%ecx,%edx,1),%edx
  401554:	89 55 b0             	mov    %edx,-0x50(%ebp)
  401557:	8b 45 b0             	mov    -0x50(%ebp),%eax
  40155a:	c1 e0 0e             	shl    $0xe,%eax
  40155d:	8b 4d b0             	mov    -0x50(%ebp),%ecx
  401560:	c1 e9 12             	shr    $0x12,%ecx
  401563:	0b c1                	or     %ecx,%eax
  401565:	89 45 b0             	mov    %eax,-0x50(%ebp)
  401568:	8b 55 b0             	mov    -0x50(%ebp),%edx
  40156b:	03 55 b4             	add    -0x4c(%ebp),%edx
  40156e:	89 55 b0             	mov    %edx,-0x50(%ebp)
  401571:	8b 45 b0             	mov    -0x50(%ebp),%eax
  401574:	23 45 bc             	and    -0x44(%ebp),%eax
  401577:	8b 4d bc             	mov    -0x44(%ebp),%ecx
  40157a:	f7 d1                	not    %ecx
  40157c:	23 4d b4             	and    -0x4c(%ebp),%ecx
  40157f:	0b c1                	or     %ecx,%eax
  401581:	03 45 d0             	add    -0x30(%ebp),%eax
  401584:	8b 55 b8             	mov    -0x48(%ebp),%edx
  401587:	8d 84 02 c8 fb d3 e7 	lea    -0x182c0438(%edx,%eax,1),%eax
  40158e:	89 45 b8             	mov    %eax,-0x48(%ebp)
  401591:	8b 4d b8             	mov    -0x48(%ebp),%ecx
  401594:	c1 e1 14             	shl    $0x14,%ecx
  401597:	8b 55 b8             	mov    -0x48(%ebp),%edx
  40159a:	c1 ea 0c             	shr    $0xc,%edx
  40159d:	0b ca                	or     %edx,%ecx
  40159f:	89 4d b8             	mov    %ecx,-0x48(%ebp)
  4015a2:	8b 45 b8             	mov    -0x48(%ebp),%eax
  4015a5:	03 45 b0             	add    -0x50(%ebp),%eax
  4015a8:	89 45 b8             	mov    %eax,-0x48(%ebp)
  4015ab:	8b 4d b8             	mov    -0x48(%ebp),%ecx
  4015ae:	23 4d b4             	and    -0x4c(%ebp),%ecx
  4015b1:	8b 55 b4             	mov    -0x4c(%ebp),%edx
  4015b4:	f7 d2                	not    %edx
  4015b6:	23 55 b0             	and    -0x50(%ebp),%edx
  4015b9:	0b ca                	or     %edx,%ecx
  4015bb:	03 4d e4             	add    -0x1c(%ebp),%ecx
  4015be:	8b 45 bc             	mov    -0x44(%ebp),%eax
  4015c1:	8d 8c 08 e6 cd e1 21 	lea    0x21e1cde6(%eax,%ecx,1),%ecx
  4015c8:	89 4d bc             	mov    %ecx,-0x44(%ebp)
  4015cb:	8b 55 bc             	mov    -0x44(%ebp),%edx
  4015ce:	c1 e2 05             	shl    $0x5,%edx
  4015d1:	8b 45 bc             	mov    -0x44(%ebp),%eax
  4015d4:	c1 e8 1b             	shr    $0x1b,%eax
  4015d7:	0b d0                	or     %eax,%edx
  4015d9:	89 55 bc             	mov    %edx,-0x44(%ebp)
  4015dc:	8b 4d bc             	mov    -0x44(%ebp),%ecx
  4015df:	03 4d b8             	add    -0x48(%ebp),%ecx
  4015e2:	89 4d bc             	mov    %ecx,-0x44(%ebp)
  4015e5:	8b 55 bc             	mov    -0x44(%ebp),%edx
  4015e8:	23 55 b0             	and    -0x50(%ebp),%edx
  4015eb:	8b 45 b0             	mov    -0x50(%ebp),%eax
  4015ee:	f7 d0                	not    %eax
  4015f0:	23 45 b8             	and    -0x48(%ebp),%eax
  4015f3:	0b d0                	or     %eax,%edx
  4015f5:	03 55 f8             	add    -0x8(%ebp),%edx
  4015f8:	8b 4d b4             	mov    -0x4c(%ebp),%ecx
  4015fb:	8d 94 11 d6 07 37 c3 	lea    -0x3cc8f82a(%ecx,%edx,1),%edx
  401602:	89 55 b4             	mov    %edx,-0x4c(%ebp)
  401605:	8b 45 b4             	mov    -0x4c(%ebp),%eax
  401608:	c1 e0 09             	shl    $0x9,%eax
  40160b:	8b 4d b4             	mov    -0x4c(%ebp),%ecx
  40160e:	c1 e9 17             	shr    $0x17,%ecx
  401611:	0b c1                	or     %ecx,%eax
  401613:	89 45 b4             	mov    %eax,-0x4c(%ebp)
  401616:	8b 55 b4             	mov    -0x4c(%ebp),%edx
  401619:	03 55 bc             	add    -0x44(%ebp),%edx
  40161c:	89 55 b4             	mov    %edx,-0x4c(%ebp)
  40161f:	8b 45 b4             	mov    -0x4c(%ebp),%eax
  401622:	23 45 b8             	and    -0x48(%ebp),%eax
  401625:	8b 4d b8             	mov    -0x48(%ebp),%ecx
  401628:	f7 d1                	not    %ecx
  40162a:	23 4d bc             	and    -0x44(%ebp),%ecx
  40162d:	0b c1                	or     %ecx,%eax
  40162f:	03 45 cc             	add    -0x34(%ebp),%eax
  401632:	8b 55 b0             	mov    -0x50(%ebp),%edx
  401635:	8d 84 02 87 0d d5 f4 	lea    -0xb2af279(%edx,%eax,1),%eax
  40163c:	89 45 b0             	mov    %eax,-0x50(%ebp)
  40163f:	8b 4d b0             	mov    -0x50(%ebp),%ecx
  401642:	c1 e1 0e             	shl    $0xe,%ecx
  401645:	8b 55 b0             	mov    -0x50(%ebp),%edx
  401648:	c1 ea 12             	shr    $0x12,%edx
  40164b:	0b ca                	or     %edx,%ecx
  40164d:	89 4d b0             	mov    %ecx,-0x50(%ebp)
  401650:	8b 45 b0             	mov    -0x50(%ebp),%eax
  401653:	03 45 b4             	add    -0x4c(%ebp),%eax
  401656:	89 45 b0             	mov    %eax,-0x50(%ebp)
  401659:	8b 4d b0             	mov    -0x50(%ebp),%ecx
  40165c:	23 4d bc             	and    -0x44(%ebp),%ecx
  40165f:	8b 55 bc             	mov    -0x44(%ebp),%edx
  401662:	f7 d2                	not    %edx
  401664:	23 55 b4             	and    -0x4c(%ebp),%edx
  401667:	0b ca                	or     %edx,%ecx
  401669:	03 4d e0             	add    -0x20(%ebp),%ecx
  40166c:	8b 45 b8             	mov    -0x48(%ebp),%eax
  40166f:	8d 8c 08 ed 14 5a 45 	lea    0x455a14ed(%eax,%ecx,1),%ecx
  401676:	89 4d b8             	mov    %ecx,-0x48(%ebp)
  401679:	8b 55 b8             	mov    -0x48(%ebp),%edx
  40167c:	c1 e2 14             	shl    $0x14,%edx
  40167f:	8b 45 b8             	mov    -0x48(%ebp),%eax
  401682:	c1 e8 0c             	shr    $0xc,%eax
  401685:	0b d0                	or     %eax,%edx
  401687:	89 55 b8             	mov    %edx,-0x48(%ebp)
  40168a:	8b 4d b8             	mov    -0x48(%ebp),%ecx
  40168d:	03 4d b0             	add    -0x50(%ebp),%ecx
  401690:	89 4d b8             	mov    %ecx,-0x48(%ebp)
  401693:	8b 55 b8             	mov    -0x48(%ebp),%edx
  401696:	23 55 b4             	and    -0x4c(%ebp),%edx
  401699:	8b 45 b4             	mov    -0x4c(%ebp),%eax
  40169c:	f7 d0                	not    %eax
  40169e:	23 45 b0             	and    -0x50(%ebp),%eax
  4016a1:	0b d0                	or     %eax,%edx
  4016a3:	03 55 f4             	add    -0xc(%ebp),%edx
  4016a6:	8b 4d bc             	mov    -0x44(%ebp),%ecx
  4016a9:	8d 94 11 05 e9 e3 a9 	lea    -0x561c16fb(%ecx,%edx,1),%edx
  4016b0:	89 55 bc             	mov    %edx,-0x44(%ebp)
  4016b3:	8b 45 bc             	mov    -0x44(%ebp),%eax
  4016b6:	c1 e0 05             	shl    $0x5,%eax
  4016b9:	8b 4d bc             	mov    -0x44(%ebp),%ecx
  4016bc:	c1 e9 1b             	shr    $0x1b,%ecx
  4016bf:	0b c1                	or     %ecx,%eax
  4016c1:	89 45 bc             	mov    %eax,-0x44(%ebp)
  4016c4:	8b 55 bc             	mov    -0x44(%ebp),%edx
  4016c7:	03 55 b8             	add    -0x48(%ebp),%edx
  4016ca:	89 55 bc             	mov    %edx,-0x44(%ebp)
  4016cd:	8b 45 bc             	mov    -0x44(%ebp),%eax
  4016d0:	23 45 b0             	and    -0x50(%ebp),%eax
  4016d3:	8b 4d b0             	mov    -0x50(%ebp),%ecx
  4016d6:	f7 d1                	not    %ecx
  4016d8:	23 4d b8             	and    -0x48(%ebp),%ecx
  4016db:	0b c1                	or     %ecx,%eax
  4016dd:	03 45 c8             	add    -0x38(%ebp),%eax
  4016e0:	8b 55 b4             	mov    -0x4c(%ebp),%edx
  4016e3:	8d 84 02 f8 a3 ef fc 	lea    -0x3105c08(%edx,%eax,1),%eax
  4016ea:	89 45 b4             	mov    %eax,-0x4c(%ebp)
  4016ed:	8b 4d b4             	mov    -0x4c(%ebp),%ecx
  4016f0:	c1 e1 09             	shl    $0x9,%ecx
  4016f3:	8b 55 b4             	mov    -0x4c(%ebp),%edx
  4016f6:	c1 ea 17             	shr    $0x17,%edx
  4016f9:	0b ca                	or     %edx,%ecx
  4016fb:	89 4d b4             	mov    %ecx,-0x4c(%ebp)
  4016fe:	8b 45 b4             	mov    -0x4c(%ebp),%eax
  401701:	03 45 bc             	add    -0x44(%ebp),%eax
  401704:	89 45 b4             	mov    %eax,-0x4c(%ebp)
  401707:	8b 4d b4             	mov    -0x4c(%ebp),%ecx
  40170a:	23 4d b8             	and    -0x48(%ebp),%ecx
  40170d:	8b 55 b8             	mov    -0x48(%ebp),%edx
  401710:	f7 d2                	not    %edx
  401712:	23 55 bc             	and    -0x44(%ebp),%edx
  401715:	0b ca                	or     %edx,%ecx
  401717:	03 4d dc             	add    -0x24(%ebp),%ecx
  40171a:	8b 45 b0             	mov    -0x50(%ebp),%eax
  40171d:	8d 8c 08 d9 02 6f 67 	lea    0x676f02d9(%eax,%ecx,1),%ecx
  401724:	89 4d b0             	mov    %ecx,-0x50(%ebp)
  401727:	8b 55 b0             	mov    -0x50(%ebp),%edx
  40172a:	c1 e2 0e             	shl    $0xe,%edx
  40172d:	8b 45 b0             	mov    -0x50(%ebp),%eax
  401730:	c1 e8 12             	shr    $0x12,%eax
  401733:	0b d0                	or     %eax,%edx
  401735:	89 55 b0             	mov    %edx,-0x50(%ebp)
  401738:	8b 4d b0             	mov    -0x50(%ebp),%ecx
  40173b:	03 4d b4             	add    -0x4c(%ebp),%ecx
  40173e:	89 4d b0             	mov    %ecx,-0x50(%ebp)
  401741:	8b 55 b0             	mov    -0x50(%ebp),%edx
  401744:	23 55 bc             	and    -0x44(%ebp),%edx
  401747:	8b 45 bc             	mov    -0x44(%ebp),%eax
  40174a:	f7 d0                	not    %eax
  40174c:	23 45 b4             	and    -0x4c(%ebp),%eax
  40174f:	0b d0                	or     %eax,%edx
  401751:	03 55 f0             	add    -0x10(%ebp),%edx
  401754:	8b 4d b8             	mov    -0x48(%ebp),%ecx
  401757:	8d 94 11 8a 4c 2a 8d 	lea    -0x72d5b376(%ecx,%edx,1),%edx
  40175e:	89 55 b8             	mov    %edx,-0x48(%ebp)
  401761:	8b 45 b8             	mov    -0x48(%ebp),%eax
  401764:	c1 e0 14             	shl    $0x14,%eax
  401767:	8b 4d b8             	mov    -0x48(%ebp),%ecx
  40176a:	c1 e9 0c             	shr    $0xc,%ecx
  40176d:	0b c1                	or     %ecx,%eax
  40176f:	89 45 b8             	mov    %eax,-0x48(%ebp)
  401772:	8b 55 b8             	mov    -0x48(%ebp),%edx
  401775:	03 55 b0             	add    -0x50(%ebp),%edx
  401778:	89 55 b8             	mov    %edx,-0x48(%ebp)
  40177b:	8b 45 b8             	mov    -0x48(%ebp),%eax
  40177e:	33 45 b0             	xor    -0x50(%ebp),%eax
  401781:	33 45 b4             	xor    -0x4c(%ebp),%eax
  401784:	03 45 d4             	add    -0x2c(%ebp),%eax
  401787:	8b 4d bc             	mov    -0x44(%ebp),%ecx
  40178a:	8d 94 01 42 39 fa ff 	lea    -0x5c6be(%ecx,%eax,1),%edx
  401791:	89 55 bc             	mov    %edx,-0x44(%ebp)
  401794:	8b 45 bc             	mov    -0x44(%ebp),%eax
  401797:	c1 e0 04             	shl    $0x4,%eax
  40179a:	8b 4d bc             	mov    -0x44(%ebp),%ecx
  40179d:	c1 e9 1c             	shr    $0x1c,%ecx
  4017a0:	0b c1                	or     %ecx,%eax
  4017a2:	89 45 bc             	mov    %eax,-0x44(%ebp)
  4017a5:	8b 55 bc             	mov    -0x44(%ebp),%edx
  4017a8:	03 55 b8             	add    -0x48(%ebp),%edx
  4017ab:	89 55 bc             	mov    %edx,-0x44(%ebp)
  4017ae:	8b 45 bc             	mov    -0x44(%ebp),%eax
  4017b1:	33 45 b8             	xor    -0x48(%ebp),%eax
  4017b4:	33 45 b0             	xor    -0x50(%ebp),%eax
  4017b7:	03 45 e0             	add    -0x20(%ebp),%eax
  4017ba:	8b 4d b4             	mov    -0x4c(%ebp),%ecx
  4017bd:	8d 94 01 81 f6 71 87 	lea    -0x788e097f(%ecx,%eax,1),%edx
  4017c4:	89 55 b4             	mov    %edx,-0x4c(%ebp)
  4017c7:	8b 45 b4             	mov    -0x4c(%ebp),%eax
  4017ca:	c1 e0 0b             	shl    $0xb,%eax
  4017cd:	8b 4d b4             	mov    -0x4c(%ebp),%ecx
  4017d0:	c1 e9 15             	shr    $0x15,%ecx
  4017d3:	0b c1                	or     %ecx,%eax
  4017d5:	89 45 b4             	mov    %eax,-0x4c(%ebp)
  4017d8:	8b 55 b4             	mov    -0x4c(%ebp),%edx
  4017db:	03 55 bc             	add    -0x44(%ebp),%edx
  4017de:	89 55 b4             	mov    %edx,-0x4c(%ebp)
  4017e1:	8b 45 b4             	mov    -0x4c(%ebp),%eax
  4017e4:	33 45 bc             	xor    -0x44(%ebp),%eax
  4017e7:	33 45 b8             	xor    -0x48(%ebp),%eax
  4017ea:	03 45 ec             	add    -0x14(%ebp),%eax
  4017ed:	8b 4d b0             	mov    -0x50(%ebp),%ecx
  4017f0:	8d 94 01 22 61 9d 6d 	lea    0x6d9d6122(%ecx,%eax,1),%edx
  4017f7:	89 55 b0             	mov    %edx,-0x50(%ebp)
  4017fa:	8b 45 b0             	mov    -0x50(%ebp),%eax
  4017fd:	c1 e0 10             	shl    $0x10,%eax
  401800:	8b 4d b0             	mov    -0x50(%ebp),%ecx
  401803:	c1 e9 10             	shr    $0x10,%ecx
  401806:	0b c1                	or     %ecx,%eax
  401808:	89 45 b0             	mov    %eax,-0x50(%ebp)
  40180b:	8b 55 b0             	mov    -0x50(%ebp),%edx
  40180e:	03 55 b4             	add    -0x4c(%ebp),%edx
  401811:	89 55 b0             	mov    %edx,-0x50(%ebp)
  401814:	8b 45 b0             	mov    -0x50(%ebp),%eax
  401817:	33 45 b4             	xor    -0x4c(%ebp),%eax
  40181a:	33 45 bc             	xor    -0x44(%ebp),%eax
  40181d:	03 45 f8             	add    -0x8(%ebp),%eax
  401820:	8b 4d b8             	mov    -0x48(%ebp),%ecx
  401823:	8d 94 01 0c 38 e5 fd 	lea    -0x21ac7f4(%ecx,%eax,1),%edx
  40182a:	89 55 b8             	mov    %edx,-0x48(%ebp)
  40182d:	8b 45 b8             	mov    -0x48(%ebp),%eax
  401830:	c1 e0 17             	shl    $0x17,%eax
  401833:	8b 4d b8             	mov    -0x48(%ebp),%ecx
  401836:	c1 e9 09             	shr    $0x9,%ecx
  401839:	0b c1                	or     %ecx,%eax
  40183b:	89 45 b8             	mov    %eax,-0x48(%ebp)
  40183e:	8b 55 b8             	mov    -0x48(%ebp),%edx
  401841:	03 55 b0             	add    -0x50(%ebp),%edx
  401844:	89 55 b8             	mov    %edx,-0x48(%ebp)
  401847:	8b 45 b8             	mov    -0x48(%ebp),%eax
  40184a:	33 45 b0             	xor    -0x50(%ebp),%eax
  40184d:	33 45 b4             	xor    -0x4c(%ebp),%eax
  401850:	03 45 c4             	add    -0x3c(%ebp),%eax
  401853:	8b 4d bc             	mov    -0x44(%ebp),%ecx
  401856:	8d 94 01 44 ea be a4 	lea    -0x5b4115bc(%ecx,%eax,1),%edx
  40185d:	89 55 bc             	mov    %edx,-0x44(%ebp)
  401860:	8b 45 bc             	mov    -0x44(%ebp),%eax
  401863:	c1 e0 04             	shl    $0x4,%eax
  401866:	8b 4d bc             	mov    -0x44(%ebp),%ecx
  401869:	c1 e9 1c             	shr    $0x1c,%ecx
  40186c:	0b c1                	or     %ecx,%eax
  40186e:	89 45 bc             	mov    %eax,-0x44(%ebp)
  401871:	8b 55 bc             	mov    -0x44(%ebp),%edx
  401874:	03 55 b8             	add    -0x48(%ebp),%edx
  401877:	89 55 bc             	mov    %edx,-0x44(%ebp)
  40187a:	8b 45 bc             	mov    -0x44(%ebp),%eax
  40187d:	33 45 b8             	xor    -0x48(%ebp),%eax
  401880:	33 45 b0             	xor    -0x50(%ebp),%eax
  401883:	03 45 d0             	add    -0x30(%ebp),%eax
  401886:	8b 4d b4             	mov    -0x4c(%ebp),%ecx
  401889:	8d 94 01 a9 cf de 4b 	lea    0x4bdecfa9(%ecx,%eax,1),%edx
  401890:	89 55 b4             	mov    %edx,-0x4c(%ebp)
  401893:	8b 45 b4             	mov    -0x4c(%ebp),%eax
  401896:	c1 e0 0b             	shl    $0xb,%eax
  401899:	8b 4d b4             	mov    -0x4c(%ebp),%ecx
  40189c:	c1 e9 15             	shr    $0x15,%ecx
  40189f:	0b c1                	or     %ecx,%eax
  4018a1:	89 45 b4             	mov    %eax,-0x4c(%ebp)
  4018a4:	8b 55 b4             	mov    -0x4c(%ebp),%edx
  4018a7:	03 55 bc             	add    -0x44(%ebp),%edx
  4018aa:	89 55 b4             	mov    %edx,-0x4c(%ebp)
  4018ad:	8b 45 b4             	mov    -0x4c(%ebp),%eax
  4018b0:	33 45 bc             	xor    -0x44(%ebp),%eax
  4018b3:	33 45 b8             	xor    -0x48(%ebp),%eax
  4018b6:	03 45 dc             	add    -0x24(%ebp),%eax
  4018b9:	8b 4d b0             	mov    -0x50(%ebp),%ecx
  4018bc:	8d 94 01 60 4b bb f6 	lea    -0x944b4a0(%ecx,%eax,1),%edx
  4018c3:	89 55 b0             	mov    %edx,-0x50(%ebp)
  4018c6:	8b 45 b0             	mov    -0x50(%ebp),%eax
  4018c9:	c1 e0 10             	shl    $0x10,%eax
  4018cc:	8b 4d b0             	mov    -0x50(%ebp),%ecx
  4018cf:	c1 e9 10             	shr    $0x10,%ecx
  4018d2:	0b c1                	or     %ecx,%eax
  4018d4:	89 45 b0             	mov    %eax,-0x50(%ebp)
  4018d7:	8b 55 b0             	mov    -0x50(%ebp),%edx
  4018da:	03 55 b4             	add    -0x4c(%ebp),%edx
  4018dd:	89 55 b0             	mov    %edx,-0x50(%ebp)
  4018e0:	8b 45 b0             	mov    -0x50(%ebp),%eax
  4018e3:	33 45 b4             	xor    -0x4c(%ebp),%eax
  4018e6:	33 45 bc             	xor    -0x44(%ebp),%eax
  4018e9:	03 45 e8             	add    -0x18(%ebp),%eax
  4018ec:	8b 4d b8             	mov    -0x48(%ebp),%ecx
  4018ef:	8d 94 01 70 bc bf be 	lea    -0x41404390(%ecx,%eax,1),%edx
  4018f6:	89 55 b8             	mov    %edx,-0x48(%ebp)
  4018f9:	8b 45 b8             	mov    -0x48(%ebp),%eax
  4018fc:	c1 e0 17             	shl    $0x17,%eax
  4018ff:	8b 4d b8             	mov    -0x48(%ebp),%ecx
  401902:	c1 e9 09             	shr    $0x9,%ecx
  401905:	0b c1                	or     %ecx,%eax
  401907:	89 45 b8             	mov    %eax,-0x48(%ebp)
  40190a:	8b 55 b8             	mov    -0x48(%ebp),%edx
  40190d:	03 55 b0             	add    -0x50(%ebp),%edx
  401910:	89 55 b8             	mov    %edx,-0x48(%ebp)
  401913:	8b 45 b8             	mov    -0x48(%ebp),%eax
  401916:	33 45 b0             	xor    -0x50(%ebp),%eax
  401919:	33 45 b4             	xor    -0x4c(%ebp),%eax
  40191c:	03 45 f4             	add    -0xc(%ebp),%eax
  40191f:	8b 4d bc             	mov    -0x44(%ebp),%ecx
  401922:	8d 94 01 c6 7e 9b 28 	lea    0x289b7ec6(%ecx,%eax,1),%edx
  401929:	89 55 bc             	mov    %edx,-0x44(%ebp)
  40192c:	8b 45 bc             	mov    -0x44(%ebp),%eax
  40192f:	c1 e0 04             	shl    $0x4,%eax
  401932:	8b 4d bc             	mov    -0x44(%ebp),%ecx
  401935:	c1 e9 1c             	shr    $0x1c,%ecx
  401938:	0b c1                	or     %ecx,%eax
  40193a:	89 45 bc             	mov    %eax,-0x44(%ebp)
  40193d:	8b 55 bc             	mov    -0x44(%ebp),%edx
  401940:	03 55 b8             	add    -0x48(%ebp),%edx
  401943:	89 55 bc             	mov    %edx,-0x44(%ebp)
  401946:	8b 45 bc             	mov    -0x44(%ebp),%eax
  401949:	33 45 b8             	xor    -0x48(%ebp),%eax
  40194c:	33 45 b0             	xor    -0x50(%ebp),%eax
  40194f:	03 45 c0             	add    -0x40(%ebp),%eax
  401952:	8b 4d b4             	mov    -0x4c(%ebp),%ecx
  401955:	8d 94 01 fa 27 a1 ea 	lea    -0x155ed806(%ecx,%eax,1),%edx
  40195c:	89 55 b4             	mov    %edx,-0x4c(%ebp)
  40195f:	8b 45 b4             	mov    -0x4c(%ebp),%eax
  401962:	c1 e0 0b             	shl    $0xb,%eax
  401965:	8b 4d b4             	mov    -0x4c(%ebp),%ecx
  401968:	c1 e9 15             	shr    $0x15,%ecx
  40196b:	0b c1                	or     %ecx,%eax
  40196d:	89 45 b4             	mov    %eax,-0x4c(%ebp)
  401970:	8b 55 b4             	mov    -0x4c(%ebp),%edx
  401973:	03 55 bc             	add    -0x44(%ebp),%edx
  401976:	89 55 b4             	mov    %edx,-0x4c(%ebp)
  401979:	8b 45 b4             	mov    -0x4c(%ebp),%eax
  40197c:	33 45 bc             	xor    -0x44(%ebp),%eax
  40197f:	33 45 b8             	xor    -0x48(%ebp),%eax
  401982:	03 45 cc             	add    -0x34(%ebp),%eax
  401985:	8b 4d b0             	mov    -0x50(%ebp),%ecx
  401988:	8d 94 01 85 30 ef d4 	lea    -0x2b10cf7b(%ecx,%eax,1),%edx
  40198f:	89 55 b0             	mov    %edx,-0x50(%ebp)
  401992:	8b 45 b0             	mov    -0x50(%ebp),%eax
  401995:	c1 e0 10             	shl    $0x10,%eax
  401998:	8b 4d b0             	mov    -0x50(%ebp),%ecx
  40199b:	c1 e9 10             	shr    $0x10,%ecx
  40199e:	0b c1                	or     %ecx,%eax
  4019a0:	89 45 b0             	mov    %eax,-0x50(%ebp)
  4019a3:	8b 55 b0             	mov    -0x50(%ebp),%edx
  4019a6:	03 55 b4             	add    -0x4c(%ebp),%edx
  4019a9:	89 55 b0             	mov    %edx,-0x50(%ebp)
  4019ac:	8b 45 b0             	mov    -0x50(%ebp),%eax
  4019af:	33 45 b4             	xor    -0x4c(%ebp),%eax
  4019b2:	33 45 bc             	xor    -0x44(%ebp),%eax
  4019b5:	03 45 d8             	add    -0x28(%ebp),%eax
  4019b8:	8b 4d b8             	mov    -0x48(%ebp),%ecx
  4019bb:	8d 94 01 05 1d 88 04 	lea    0x4881d05(%ecx,%eax,1),%edx
  4019c2:	89 55 b8             	mov    %edx,-0x48(%ebp)
  4019c5:	8b 45 b8             	mov    -0x48(%ebp),%eax
  4019c8:	c1 e0 17             	shl    $0x17,%eax
  4019cb:	8b 4d b8             	mov    -0x48(%ebp),%ecx
  4019ce:	c1 e9 09             	shr    $0x9,%ecx
  4019d1:	0b c1                	or     %ecx,%eax
  4019d3:	89 45 b8             	mov    %eax,-0x48(%ebp)
  4019d6:	8b 55 b8             	mov    -0x48(%ebp),%edx
  4019d9:	03 55 b0             	add    -0x50(%ebp),%edx
  4019dc:	89 55 b8             	mov    %edx,-0x48(%ebp)
  4019df:	8b 45 b8             	mov    -0x48(%ebp),%eax
  4019e2:	33 45 b0             	xor    -0x50(%ebp),%eax
  4019e5:	33 45 b4             	xor    -0x4c(%ebp),%eax
  4019e8:	03 45 e4             	add    -0x1c(%ebp),%eax
  4019eb:	8b 4d bc             	mov    -0x44(%ebp),%ecx
  4019ee:	8d 94 01 39 d0 d4 d9 	lea    -0x262b2fc7(%ecx,%eax,1),%edx
  4019f5:	89 55 bc             	mov    %edx,-0x44(%ebp)
  4019f8:	8b 45 bc             	mov    -0x44(%ebp),%eax
  4019fb:	c1 e0 04             	shl    $0x4,%eax
  4019fe:	8b 4d bc             	mov    -0x44(%ebp),%ecx
  401a01:	c1 e9 1c             	shr    $0x1c,%ecx
  401a04:	0b c1                	or     %ecx,%eax
  401a06:	89 45 bc             	mov    %eax,-0x44(%ebp)
  401a09:	8b 55 bc             	mov    -0x44(%ebp),%edx
  401a0c:	03 55 b8             	add    -0x48(%ebp),%edx
  401a0f:	89 55 bc             	mov    %edx,-0x44(%ebp)
  401a12:	8b 45 bc             	mov    -0x44(%ebp),%eax
  401a15:	33 45 b8             	xor    -0x48(%ebp),%eax
  401a18:	33 45 b0             	xor    -0x50(%ebp),%eax
  401a1b:	03 45 f0             	add    -0x10(%ebp),%eax
  401a1e:	8b 4d b4             	mov    -0x4c(%ebp),%ecx
  401a21:	8d 94 01 e5 99 db e6 	lea    -0x1924661b(%ecx,%eax,1),%edx
  401a28:	89 55 b4             	mov    %edx,-0x4c(%ebp)
  401a2b:	8b 45 b4             	mov    -0x4c(%ebp),%eax
  401a2e:	c1 e0 0b             	shl    $0xb,%eax
  401a31:	8b 4d b4             	mov    -0x4c(%ebp),%ecx
  401a34:	c1 e9 15             	shr    $0x15,%ecx
  401a37:	0b c1                	or     %ecx,%eax
  401a39:	89 45 b4             	mov    %eax,-0x4c(%ebp)
  401a3c:	8b 55 b4             	mov    -0x4c(%ebp),%edx
  401a3f:	03 55 bc             	add    -0x44(%ebp),%edx
  401a42:	89 55 b4             	mov    %edx,-0x4c(%ebp)
  401a45:	8b 45 b4             	mov    -0x4c(%ebp),%eax
  401a48:	33 45 bc             	xor    -0x44(%ebp),%eax
  401a4b:	33 45 b8             	xor    -0x48(%ebp),%eax
  401a4e:	03 45 fc             	add    -0x4(%ebp),%eax
  401a51:	8b 4d b0             	mov    -0x50(%ebp),%ecx
  401a54:	8d 94 01 f8 7c a2 1f 	lea    0x1fa27cf8(%ecx,%eax,1),%edx
  401a5b:	89 55 b0             	mov    %edx,-0x50(%ebp)
  401a5e:	8b 45 b0             	mov    -0x50(%ebp),%eax
  401a61:	c1 e0 10             	shl    $0x10,%eax
  401a64:	8b 4d b0             	mov    -0x50(%ebp),%ecx
  401a67:	c1 e9 10             	shr    $0x10,%ecx
  401a6a:	0b c1                	or     %ecx,%eax
  401a6c:	89 45 b0             	mov    %eax,-0x50(%ebp)
  401a6f:	8b 55 b0             	mov    -0x50(%ebp),%edx
  401a72:	03 55 b4             	add    -0x4c(%ebp),%edx
  401a75:	89 55 b0             	mov    %edx,-0x50(%ebp)
  401a78:	8b 45 b0             	mov    -0x50(%ebp),%eax
  401a7b:	33 45 b4             	xor    -0x4c(%ebp),%eax
  401a7e:	33 45 bc             	xor    -0x44(%ebp),%eax
  401a81:	03 45 c8             	add    -0x38(%ebp),%eax
  401a84:	8b 4d b8             	mov    -0x48(%ebp),%ecx
  401a87:	8d 94 01 65 56 ac c4 	lea    -0x3b53a99b(%ecx,%eax,1),%edx
  401a8e:	89 55 b8             	mov    %edx,-0x48(%ebp)
  401a91:	8b 45 b8             	mov    -0x48(%ebp),%eax
  401a94:	c1 e0 17             	shl    $0x17,%eax
  401a97:	8b 4d b8             	mov    -0x48(%ebp),%ecx
  401a9a:	c1 e9 09             	shr    $0x9,%ecx
  401a9d:	0b c1                	or     %ecx,%eax
  401a9f:	89 45 b8             	mov    %eax,-0x48(%ebp)
  401aa2:	8b 55 b8             	mov    -0x48(%ebp),%edx
  401aa5:	03 55 b0             	add    -0x50(%ebp),%edx
  401aa8:	89 55 b8             	mov    %edx,-0x48(%ebp)
  401aab:	8b 45 b4             	mov    -0x4c(%ebp),%eax
  401aae:	f7 d0                	not    %eax
  401ab0:	0b 45 b8             	or     -0x48(%ebp),%eax
  401ab3:	33 45 b0             	xor    -0x50(%ebp),%eax
  401ab6:	03 45 c0             	add    -0x40(%ebp),%eax
  401ab9:	8b 4d bc             	mov    -0x44(%ebp),%ecx
  401abc:	8d 94 01 44 22 29 f4 	lea    -0xbd6ddbc(%ecx,%eax,1),%edx
  401ac3:	89 55 bc             	mov    %edx,-0x44(%ebp)
  401ac6:	8b 45 bc             	mov    -0x44(%ebp),%eax
  401ac9:	c1 e0 06             	shl    $0x6,%eax
  401acc:	8b 4d bc             	mov    -0x44(%ebp),%ecx
  401acf:	c1 e9 1a             	shr    $0x1a,%ecx
  401ad2:	0b c1                	or     %ecx,%eax
  401ad4:	89 45 bc             	mov    %eax,-0x44(%ebp)
  401ad7:	8b 55 bc             	mov    -0x44(%ebp),%edx
  401ada:	03 55 b8             	add    -0x48(%ebp),%edx
  401add:	89 55 bc             	mov    %edx,-0x44(%ebp)
  401ae0:	8b 45 b0             	mov    -0x50(%ebp),%eax
  401ae3:	f7 d0                	not    %eax
  401ae5:	0b 45 bc             	or     -0x44(%ebp),%eax
  401ae8:	33 45 b8             	xor    -0x48(%ebp),%eax
  401aeb:	03 45 dc             	add    -0x24(%ebp),%eax
  401aee:	8b 4d b4             	mov    -0x4c(%ebp),%ecx
  401af1:	8d 94 01 97 ff 2a 43 	lea    0x432aff97(%ecx,%eax,1),%edx
  401af8:	89 55 b4             	mov    %edx,-0x4c(%ebp)
  401afb:	8b 45 b4             	mov    -0x4c(%ebp),%eax
  401afe:	c1 e0 0a             	shl    $0xa,%eax
  401b01:	8b 4d b4             	mov    -0x4c(%ebp),%ecx
  401b04:	c1 e9 16             	shr    $0x16,%ecx
  401b07:	0b c1                	or     %ecx,%eax
  401b09:	89 45 b4             	mov    %eax,-0x4c(%ebp)
  401b0c:	8b 55 b4             	mov    -0x4c(%ebp),%edx
  401b0f:	03 55 bc             	add    -0x44(%ebp),%edx
  401b12:	89 55 b4             	mov    %edx,-0x4c(%ebp)
  401b15:	8b 45 b8             	mov    -0x48(%ebp),%eax
  401b18:	f7 d0                	not    %eax
  401b1a:	0b 45 b4             	or     -0x4c(%ebp),%eax
  401b1d:	33 45 bc             	xor    -0x44(%ebp),%eax
  401b20:	03 45 f8             	add    -0x8(%ebp),%eax
  401b23:	8b 4d b0             	mov    -0x50(%ebp),%ecx
  401b26:	8d 94 01 a7 23 94 ab 	lea    -0x546bdc59(%ecx,%eax,1),%edx
  401b2d:	89 55 b0             	mov    %edx,-0x50(%ebp)
  401b30:	8b 45 b0             	mov    -0x50(%ebp),%eax
  401b33:	c1 e0 0f             	shl    $0xf,%eax
  401b36:	8b 4d b0             	mov    -0x50(%ebp),%ecx
  401b39:	c1 e9 11             	shr    $0x11,%ecx
  401b3c:	0b c1                	or     %ecx,%eax
  401b3e:	89 45 b0             	mov    %eax,-0x50(%ebp)
  401b41:	8b 55 b0             	mov    -0x50(%ebp),%edx
  401b44:	03 55 b4             	add    -0x4c(%ebp),%edx
  401b47:	89 55 b0             	mov    %edx,-0x50(%ebp)
  401b4a:	8b 45 bc             	mov    -0x44(%ebp),%eax
  401b4d:	f7 d0                	not    %eax
  401b4f:	0b 45 b0             	or     -0x50(%ebp),%eax
  401b52:	33 45 b4             	xor    -0x4c(%ebp),%eax
  401b55:	03 45 d4             	add    -0x2c(%ebp),%eax
  401b58:	8b 4d b8             	mov    -0x48(%ebp),%ecx
  401b5b:	8d 94 01 39 a0 93 fc 	lea    -0x36c5fc7(%ecx,%eax,1),%edx
  401b62:	89 55 b8             	mov    %edx,-0x48(%ebp)
  401b65:	8b 45 b8             	mov    -0x48(%ebp),%eax
  401b68:	c1 e0 15             	shl    $0x15,%eax
  401b6b:	8b 4d b8             	mov    -0x48(%ebp),%ecx
  401b6e:	c1 e9 0b             	shr    $0xb,%ecx
  401b71:	0b c1                	or     %ecx,%eax
  401b73:	89 45 b8             	mov    %eax,-0x48(%ebp)
  401b76:	8b 55 b8             	mov    -0x48(%ebp),%edx
  401b79:	03 55 b0             	add    -0x50(%ebp),%edx
  401b7c:	89 55 b8             	mov    %edx,-0x48(%ebp)
  401b7f:	8b 45 b4             	mov    -0x4c(%ebp),%eax
  401b82:	f7 d0                	not    %eax
  401b84:	0b 45 b8             	or     -0x48(%ebp),%eax
  401b87:	33 45 b0             	xor    -0x50(%ebp),%eax
  401b8a:	03 45 f0             	add    -0x10(%ebp),%eax
  401b8d:	8b 4d bc             	mov    -0x44(%ebp),%ecx
  401b90:	8d 94 01 c3 59 5b 65 	lea    0x655b59c3(%ecx,%eax,1),%edx
  401b97:	89 55 bc             	mov    %edx,-0x44(%ebp)
  401b9a:	8b 45 bc             	mov    -0x44(%ebp),%eax
  401b9d:	c1 e0 06             	shl    $0x6,%eax
  401ba0:	8b 4d bc             	mov    -0x44(%ebp),%ecx
  401ba3:	c1 e9 1a             	shr    $0x1a,%ecx
  401ba6:	0b c1                	or     %ecx,%eax
  401ba8:	89 45 bc             	mov    %eax,-0x44(%ebp)
  401bab:	8b 55 bc             	mov    -0x44(%ebp),%edx
  401bae:	03 55 b8             	add    -0x48(%ebp),%edx
  401bb1:	89 55 bc             	mov    %edx,-0x44(%ebp)
  401bb4:	8b 45 b0             	mov    -0x50(%ebp),%eax
  401bb7:	f7 d0                	not    %eax
  401bb9:	0b 45 bc             	or     -0x44(%ebp),%eax
  401bbc:	33 45 b8             	xor    -0x48(%ebp),%eax
  401bbf:	03 45 cc             	add    -0x34(%ebp),%eax
  401bc2:	8b 4d b4             	mov    -0x4c(%ebp),%ecx
  401bc5:	8d 94 01 92 cc 0c 8f 	lea    -0x70f3336e(%ecx,%eax,1),%edx
  401bcc:	89 55 b4             	mov    %edx,-0x4c(%ebp)
  401bcf:	8b 45 b4             	mov    -0x4c(%ebp),%eax
  401bd2:	c1 e0 0a             	shl    $0xa,%eax
  401bd5:	8b 4d b4             	mov    -0x4c(%ebp),%ecx
  401bd8:	c1 e9 16             	shr    $0x16,%ecx
  401bdb:	0b c1                	or     %ecx,%eax
  401bdd:	89 45 b4             	mov    %eax,-0x4c(%ebp)
  401be0:	8b 55 b4             	mov    -0x4c(%ebp),%edx
  401be3:	03 55 bc             	add    -0x44(%ebp),%edx
  401be6:	89 55 b4             	mov    %edx,-0x4c(%ebp)
  401be9:	8b 45 b8             	mov    -0x48(%ebp),%eax
  401bec:	f7 d0                	not    %eax
  401bee:	0b 45 b4             	or     -0x4c(%ebp),%eax
  401bf1:	33 45 bc             	xor    -0x44(%ebp),%eax
  401bf4:	03 45 e8             	add    -0x18(%ebp),%eax
  401bf7:	8b 4d b0             	mov    -0x50(%ebp),%ecx
  401bfa:	8d 94 01 7d f4 ef ff 	lea    -0x100b83(%ecx,%eax,1),%edx
  401c01:	89 55 b0             	mov    %edx,-0x50(%ebp)
  401c04:	8b 45 b0             	mov    -0x50(%ebp),%eax
  401c07:	c1 e0 0f             	shl    $0xf,%eax
  401c0a:	8b 4d b0             	mov    -0x50(%ebp),%ecx
  401c0d:	c1 e9 11             	shr    $0x11,%ecx
  401c10:	0b c1                	or     %ecx,%eax
  401c12:	89 45 b0             	mov    %eax,-0x50(%ebp)
  401c15:	8b 55 b0             	mov    -0x50(%ebp),%edx
  401c18:	03 55 b4             	add    -0x4c(%ebp),%edx
  401c1b:	89 55 b0             	mov    %edx,-0x50(%ebp)
  401c1e:	8b 45 bc             	mov    -0x44(%ebp),%eax
  401c21:	f7 d0                	not    %eax
  401c23:	0b 45 b0             	or     -0x50(%ebp),%eax
  401c26:	33 45 b4             	xor    -0x4c(%ebp),%eax
  401c29:	03 45 c4             	add    -0x3c(%ebp),%eax
  401c2c:	8b 4d b8             	mov    -0x48(%ebp),%ecx
  401c2f:	8d 94 01 d1 5d 84 85 	lea    -0x7a7ba22f(%ecx,%eax,1),%edx
  401c36:	89 55 b8             	mov    %edx,-0x48(%ebp)
  401c39:	8b 45 b8             	mov    -0x48(%ebp),%eax
  401c3c:	c1 e0 15             	shl    $0x15,%eax
  401c3f:	8b 4d b8             	mov    -0x48(%ebp),%ecx
  401c42:	c1 e9 0b             	shr    $0xb,%ecx
  401c45:	0b c1                	or     %ecx,%eax
  401c47:	89 45 b8             	mov    %eax,-0x48(%ebp)
  401c4a:	8b 55 b8             	mov    -0x48(%ebp),%edx
  401c4d:	03 55 b0             	add    -0x50(%ebp),%edx
  401c50:	89 55 b8             	mov    %edx,-0x48(%ebp)
  401c53:	8b 45 b4             	mov    -0x4c(%ebp),%eax
  401c56:	f7 d0                	not    %eax
  401c58:	0b 45 b8             	or     -0x48(%ebp),%eax
  401c5b:	33 45 b0             	xor    -0x50(%ebp),%eax
  401c5e:	03 45 e0             	add    -0x20(%ebp),%eax
  401c61:	8b 4d bc             	mov    -0x44(%ebp),%ecx
  401c64:	8d 94 01 4f 7e a8 6f 	lea    0x6fa87e4f(%ecx,%eax,1),%edx
  401c6b:	89 55 bc             	mov    %edx,-0x44(%ebp)
  401c6e:	8b 45 bc             	mov    -0x44(%ebp),%eax
  401c71:	c1 e0 06             	shl    $0x6,%eax
  401c74:	8b 4d bc             	mov    -0x44(%ebp),%ecx
  401c77:	c1 e9 1a             	shr    $0x1a,%ecx
  401c7a:	0b c1                	or     %ecx,%eax
  401c7c:	89 45 bc             	mov    %eax,-0x44(%ebp)
  401c7f:	8b 55 bc             	mov    -0x44(%ebp),%edx
  401c82:	03 55 b8             	add    -0x48(%ebp),%edx
  401c85:	89 55 bc             	mov    %edx,-0x44(%ebp)
  401c88:	8b 45 b0             	mov    -0x50(%ebp),%eax
  401c8b:	f7 d0                	not    %eax
  401c8d:	0b 45 bc             	or     -0x44(%ebp),%eax
  401c90:	33 45 b8             	xor    -0x48(%ebp),%eax
  401c93:	03 45 fc             	add    -0x4(%ebp),%eax
  401c96:	8b 4d b4             	mov    -0x4c(%ebp),%ecx
  401c99:	8d 94 01 e0 e6 2c fe 	lea    -0x1d31920(%ecx,%eax,1),%edx
  401ca0:	89 55 b4             	mov    %edx,-0x4c(%ebp)
  401ca3:	8b 45 b4             	mov    -0x4c(%ebp),%eax
  401ca6:	c1 e0 0a             	shl    $0xa,%eax
  401ca9:	8b 4d b4             	mov    -0x4c(%ebp),%ecx
  401cac:	c1 e9 16             	shr    $0x16,%ecx
  401caf:	0b c1                	or     %ecx,%eax
  401cb1:	89 45 b4             	mov    %eax,-0x4c(%ebp)
  401cb4:	8b 55 b4             	mov    -0x4c(%ebp),%edx
  401cb7:	03 55 bc             	add    -0x44(%ebp),%edx
  401cba:	89 55 b4             	mov    %edx,-0x4c(%ebp)
  401cbd:	8b 45 b8             	mov    -0x48(%ebp),%eax
  401cc0:	f7 d0                	not    %eax
  401cc2:	0b 45 b4             	or     -0x4c(%ebp),%eax
  401cc5:	33 45 bc             	xor    -0x44(%ebp),%eax
  401cc8:	03 45 d8             	add    -0x28(%ebp),%eax
  401ccb:	8b 4d b0             	mov    -0x50(%ebp),%ecx
  401cce:	8d 94 01 14 43 01 a3 	lea    -0x5cfebcec(%ecx,%eax,1),%edx
  401cd5:	89 55 b0             	mov    %edx,-0x50(%ebp)
  401cd8:	8b 45 b0             	mov    -0x50(%ebp),%eax
  401cdb:	c1 e0 0f             	shl    $0xf,%eax
  401cde:	8b 4d b0             	mov    -0x50(%ebp),%ecx
  401ce1:	c1 e9 11             	shr    $0x11,%ecx
  401ce4:	0b c1                	or     %ecx,%eax
  401ce6:	89 45 b0             	mov    %eax,-0x50(%ebp)
  401ce9:	8b 55 b0             	mov    -0x50(%ebp),%edx
  401cec:	03 55 b4             	add    -0x4c(%ebp),%edx
  401cef:	89 55 b0             	mov    %edx,-0x50(%ebp)
  401cf2:	8b 45 bc             	mov    -0x44(%ebp),%eax
  401cf5:	f7 d0                	not    %eax
  401cf7:	0b 45 b0             	or     -0x50(%ebp),%eax
  401cfa:	33 45 b4             	xor    -0x4c(%ebp),%eax
  401cfd:	03 45 f4             	add    -0xc(%ebp),%eax
  401d00:	8b 4d b8             	mov    -0x48(%ebp),%ecx
  401d03:	8d 94 01 a1 11 08 4e 	lea    0x4e0811a1(%ecx,%eax,1),%edx
  401d0a:	89 55 b8             	mov    %edx,-0x48(%ebp)
  401d0d:	8b 45 b8             	mov    -0x48(%ebp),%eax
  401d10:	c1 e0 15             	shl    $0x15,%eax
  401d13:	8b 4d b8             	mov    -0x48(%ebp),%ecx
  401d16:	c1 e9 0b             	shr    $0xb,%ecx
  401d19:	0b c1                	or     %ecx,%eax
  401d1b:	89 45 b8             	mov    %eax,-0x48(%ebp)
  401d1e:	8b 55 b8             	mov    -0x48(%ebp),%edx
  401d21:	03 55 b0             	add    -0x50(%ebp),%edx
  401d24:	89 55 b8             	mov    %edx,-0x48(%ebp)
  401d27:	8b 45 b4             	mov    -0x4c(%ebp),%eax
  401d2a:	f7 d0                	not    %eax
  401d2c:	0b 45 b8             	or     -0x48(%ebp),%eax
  401d2f:	33 45 b0             	xor    -0x50(%ebp),%eax
  401d32:	03 45 d0             	add    -0x30(%ebp),%eax
  401d35:	8b 4d bc             	mov    -0x44(%ebp),%ecx
  401d38:	8d 94 01 82 7e 53 f7 	lea    -0x8ac817e(%ecx,%eax,1),%edx
  401d3f:	89 55 bc             	mov    %edx,-0x44(%ebp)
  401d42:	8b 45 bc             	mov    -0x44(%ebp),%eax
  401d45:	c1 e0 06             	shl    $0x6,%eax
  401d48:	8b 4d bc             	mov    -0x44(%ebp),%ecx
  401d4b:	c1 e9 1a             	shr    $0x1a,%ecx
  401d4e:	0b c1                	or     %ecx,%eax
  401d50:	89 45 bc             	mov    %eax,-0x44(%ebp)
  401d53:	8b 55 bc             	mov    -0x44(%ebp),%edx
  401d56:	03 55 b8             	add    -0x48(%ebp),%edx
  401d59:	89 55 bc             	mov    %edx,-0x44(%ebp)
  401d5c:	8b 45 b0             	mov    -0x50(%ebp),%eax
  401d5f:	f7 d0                	not    %eax
  401d61:	0b 45 bc             	or     -0x44(%ebp),%eax
  401d64:	33 45 b8             	xor    -0x48(%ebp),%eax
  401d67:	03 45 ec             	add    -0x14(%ebp),%eax
  401d6a:	8b 4d b4             	mov    -0x4c(%ebp),%ecx
  401d6d:	8d 94 01 35 f2 3a bd 	lea    -0x42c50dcb(%ecx,%eax,1),%edx
  401d74:	89 55 b4             	mov    %edx,-0x4c(%ebp)
  401d77:	8b 45 b4             	mov    -0x4c(%ebp),%eax
  401d7a:	c1 e0 0a             	shl    $0xa,%eax
  401d7d:	8b 4d b4             	mov    -0x4c(%ebp),%ecx
  401d80:	c1 e9 16             	shr    $0x16,%ecx
  401d83:	0b c1                	or     %ecx,%eax
  401d85:	89 45 b4             	mov    %eax,-0x4c(%ebp)
  401d88:	8b 55 b4             	mov    -0x4c(%ebp),%edx
  401d8b:	03 55 bc             	add    -0x44(%ebp),%edx
  401d8e:	89 55 b4             	mov    %edx,-0x4c(%ebp)
  401d91:	8b 45 b8             	mov    -0x48(%ebp),%eax
  401d94:	f7 d0                	not    %eax
  401d96:	0b 45 b4             	or     -0x4c(%ebp),%eax
  401d99:	33 45 bc             	xor    -0x44(%ebp),%eax
  401d9c:	03 45 c8             	add    -0x38(%ebp),%eax
  401d9f:	8b 4d b0             	mov    -0x50(%ebp),%ecx
  401da2:	8d 94 01 bb d2 d7 2a 	lea    0x2ad7d2bb(%ecx,%eax,1),%edx
  401da9:	89 55 b0             	mov    %edx,-0x50(%ebp)
  401dac:	8b 45 b0             	mov    -0x50(%ebp),%eax
  401daf:	c1 e0 0f             	shl    $0xf,%eax
  401db2:	8b 4d b0             	mov    -0x50(%ebp),%ecx
  401db5:	c1 e9 11             	shr    $0x11,%ecx
  401db8:	0b c1                	or     %ecx,%eax
  401dba:	89 45 b0             	mov    %eax,-0x50(%ebp)
  401dbd:	8b 55 b0             	mov    -0x50(%ebp),%edx
  401dc0:	03 55 b4             	add    -0x4c(%ebp),%edx
  401dc3:	89 55 b0             	mov    %edx,-0x50(%ebp)
  401dc6:	8b 45 bc             	mov    -0x44(%ebp),%eax
  401dc9:	f7 d0                	not    %eax
  401dcb:	0b 45 b0             	or     -0x50(%ebp),%eax
  401dce:	33 45 b4             	xor    -0x4c(%ebp),%eax
  401dd1:	03 45 e4             	add    -0x1c(%ebp),%eax
  401dd4:	8b 4d b8             	mov    -0x48(%ebp),%ecx
  401dd7:	8d 94 01 91 d3 86 eb 	lea    -0x14792c6f(%ecx,%eax,1),%edx
  401dde:	89 55 b8             	mov    %edx,-0x48(%ebp)
  401de1:	8b 45 b8             	mov    -0x48(%ebp),%eax
  401de4:	c1 e0 15             	shl    $0x15,%eax
  401de7:	8b 4d b8             	mov    -0x48(%ebp),%ecx
  401dea:	c1 e9 0b             	shr    $0xb,%ecx
  401ded:	0b c1                	or     %ecx,%eax
  401def:	89 45 b8             	mov    %eax,-0x48(%ebp)
  401df2:	8b 55 b8             	mov    -0x48(%ebp),%edx
  401df5:	03 55 b0             	add    -0x50(%ebp),%edx
  401df8:	89 55 b8             	mov    %edx,-0x48(%ebp)
  401dfb:	8b 45 08             	mov    0x8(%ebp),%eax
  401dfe:	8b 08                	mov    (%eax),%ecx
  401e00:	03 4d bc             	add    -0x44(%ebp),%ecx
  401e03:	8b 55 08             	mov    0x8(%ebp),%edx
  401e06:	89 0a                	mov    %ecx,(%edx)
  401e08:	8b 45 08             	mov    0x8(%ebp),%eax
  401e0b:	8b 48 04             	mov    0x4(%eax),%ecx
  401e0e:	03 4d b8             	add    -0x48(%ebp),%ecx
  401e11:	8b 55 08             	mov    0x8(%ebp),%edx
  401e14:	89 4a 04             	mov    %ecx,0x4(%edx)
  401e17:	8b 45 08             	mov    0x8(%ebp),%eax
  401e1a:	8b 48 08             	mov    0x8(%eax),%ecx
  401e1d:	03 4d b0             	add    -0x50(%ebp),%ecx
  401e20:	8b 55 08             	mov    0x8(%ebp),%edx
  401e23:	89 4a 08             	mov    %ecx,0x8(%edx)
  401e26:	8b 45 08             	mov    0x8(%ebp),%eax
  401e29:	8b 48 0c             	mov    0xc(%eax),%ecx
  401e2c:	03 4d b4             	add    -0x4c(%ebp),%ecx
  401e2f:	8b 55 08             	mov    0x8(%ebp),%edx
  401e32:	89 4a 0c             	mov    %ecx,0xc(%edx)
  401e35:	6a 40                	push   $0x40
  401e37:	6a 00                	push   $0x0
  401e39:	8d 45 c0             	lea    -0x40(%ebp),%eax
  401e3c:	50                   	push   %eax
  401e3d:	e8 36 05 00 00       	call   0x402378
  401e42:	83 c4 0c             	add    $0xc,%esp
  401e45:	8b e5                	mov    %ebp,%esp
  401e47:	5d                   	pop    %ebp
  401e48:	c3                   	ret    
  401e49:	cc                   	int3   
  401e4a:	cc                   	int3   
  401e4b:	cc                   	int3   
  401e4c:	cc                   	int3   
  401e4d:	cc                   	int3   
  401e4e:	cc                   	int3   
  401e4f:	cc                   	int3   
  401e50:	55                   	push   %ebp
  401e51:	8b ec                	mov    %esp,%ebp
  401e53:	83 ec 08             	sub    $0x8,%esp
  401e56:	c7 45 fc 00 00 00 00 	movl   $0x0,-0x4(%ebp)
  401e5d:	c7 45 f8 00 00 00 00 	movl   $0x0,-0x8(%ebp)
  401e64:	eb 12                	jmp    0x401e78
  401e66:	8b 45 fc             	mov    -0x4(%ebp),%eax
  401e69:	83 c0 01             	add    $0x1,%eax
  401e6c:	89 45 fc             	mov    %eax,-0x4(%ebp)
  401e6f:	8b 4d f8             	mov    -0x8(%ebp),%ecx
  401e72:	83 c1 04             	add    $0x4,%ecx
  401e75:	89 4d f8             	mov    %ecx,-0x8(%ebp)
  401e78:	8b 55 f8             	mov    -0x8(%ebp),%edx
  401e7b:	3b 55 10             	cmp    0x10(%ebp),%edx
  401e7e:	73 6c                	jae    0x401eec
  401e80:	8b 45 fc             	mov    -0x4(%ebp),%eax
  401e83:	8b 4d 0c             	mov    0xc(%ebp),%ecx
  401e86:	8b 14 81             	mov    (%ecx,%eax,4),%edx
  401e89:	81 e2 ff 00 00 00    	and    $0xff,%edx
  401e8f:	8b 45 08             	mov    0x8(%ebp),%eax
  401e92:	03 45 f8             	add    -0x8(%ebp),%eax
  401e95:	88 10                	mov    %dl,(%eax)
  401e97:	8b 4d fc             	mov    -0x4(%ebp),%ecx
  401e9a:	8b 55 0c             	mov    0xc(%ebp),%edx
  401e9d:	8b 04 8a             	mov    (%edx,%ecx,4),%eax
  401ea0:	c1 e8 08             	shr    $0x8,%eax
  401ea3:	25 ff 00 00 00       	and    $0xff,%eax
  401ea8:	8b 4d 08             	mov    0x8(%ebp),%ecx
  401eab:	03 4d f8             	add    -0x8(%ebp),%ecx
  401eae:	88 41 01             	mov    %al,0x1(%ecx)
  401eb1:	8b 55 fc             	mov    -0x4(%ebp),%edx
  401eb4:	8b 45 0c             	mov    0xc(%ebp),%eax
  401eb7:	8b 0c 90             	mov    (%eax,%edx,4),%ecx
  401eba:	c1 e9 10             	shr    $0x10,%ecx
  401ebd:	81 e1 ff 00 00 00    	and    $0xff,%ecx
  401ec3:	8b 55 08             	mov    0x8(%ebp),%edx
  401ec6:	03 55 f8             	add    -0x8(%ebp),%edx
  401ec9:	88 4a 02             	mov    %cl,0x2(%edx)
  401ecc:	8b 45 fc             	mov    -0x4(%ebp),%eax
  401ecf:	8b 4d 0c             	mov    0xc(%ebp),%ecx
  401ed2:	8b 14 81             	mov    (%ecx,%eax,4),%edx
  401ed5:	c1 ea 18             	shr    $0x18,%edx
  401ed8:	81 e2 ff 00 00 00    	and    $0xff,%edx
  401ede:	8b 45 08             	mov    0x8(%ebp),%eax
  401ee1:	03 45 f8             	add    -0x8(%ebp),%eax
  401ee4:	88 50 03             	mov    %dl,0x3(%eax)
  401ee7:	e9 7a ff ff ff       	jmp    0x401e66
  401eec:	8b e5                	mov    %ebp,%esp
  401eee:	5d                   	pop    %ebp
  401eef:	c3                   	ret    
  401ef0:	55                   	push   %ebp
  401ef1:	8b ec                	mov    %esp,%ebp
  401ef3:	83 ec 08             	sub    $0x8,%esp
  401ef6:	c7 45 fc 00 00 00 00 	movl   $0x0,-0x4(%ebp)
  401efd:	c7 45 f8 00 00 00 00 	movl   $0x0,-0x8(%ebp)
  401f04:	eb 12                	jmp    0x401f18
  401f06:	8b 45 fc             	mov    -0x4(%ebp),%eax
  401f09:	83 c0 01             	add    $0x1,%eax
  401f0c:	89 45 fc             	mov    %eax,-0x4(%ebp)
  401f0f:	8b 4d f8             	mov    -0x8(%ebp),%ecx
  401f12:	83 c1 04             	add    $0x4,%ecx
  401f15:	89 4d f8             	mov    %ecx,-0x8(%ebp)
  401f18:	8b 55 f8             	mov    -0x8(%ebp),%edx
  401f1b:	3b 55 10             	cmp    0x10(%ebp),%edx
  401f1e:	73 41                	jae    0x401f61
  401f20:	8b 45 0c             	mov    0xc(%ebp),%eax
  401f23:	03 45 f8             	add    -0x8(%ebp),%eax
  401f26:	0f b6 08             	movzbl (%eax),%ecx
  401f29:	8b 55 0c             	mov    0xc(%ebp),%edx
  401f2c:	03 55 f8             	add    -0x8(%ebp),%edx
  401f2f:	0f b6 42 01          	movzbl 0x1(%edx),%eax
  401f33:	c1 e0 08             	shl    $0x8,%eax
  401f36:	0b c8                	or     %eax,%ecx
  401f38:	8b 55 0c             	mov    0xc(%ebp),%edx
  401f3b:	03 55 f8             	add    -0x8(%ebp),%edx
  401f3e:	0f b6 42 02          	movzbl 0x2(%edx),%eax
  401f42:	c1 e0 10             	shl    $0x10,%eax
  401f45:	0b c8                	or     %eax,%ecx
  401f47:	8b 55 0c             	mov    0xc(%ebp),%edx
  401f4a:	03 55 f8             	add    -0x8(%ebp),%edx
  401f4d:	0f b6 42 03          	movzbl 0x3(%edx),%eax
  401f51:	c1 e0 18             	shl    $0x18,%eax
  401f54:	0b c8                	or     %eax,%ecx
  401f56:	8b 55 fc             	mov    -0x4(%ebp),%edx
  401f59:	8b 45 08             	mov    0x8(%ebp),%eax
  401f5c:	89 0c 90             	mov    %ecx,(%eax,%edx,4)
  401f5f:	eb a5                	jmp    0x401f06
  401f61:	8b e5                	mov    %ebp,%esp
  401f63:	5d                   	pop    %ebp
  401f64:	c3                   	ret    
  401f65:	cc                   	int3   
  401f66:	cc                   	int3   
  401f67:	cc                   	int3   
  401f68:	cc                   	int3   
  401f69:	cc                   	int3   
  401f6a:	cc                   	int3   
  401f6b:	cc                   	int3   
  401f6c:	cc                   	int3   
  401f6d:	cc                   	int3   
  401f6e:	cc                   	int3   
  401f6f:	cc                   	int3   
  401f70:	55                   	push   %ebp
  401f71:	8b ec                	mov    %esp,%ebp
  401f73:	51                   	push   %ecx
  401f74:	89 4d fc             	mov    %ecx,-0x4(%ebp)
  401f77:	8b 4d fc             	mov    -0x4(%ebp),%ecx
  401f7a:	e8 11 00 00 00       	call   0x401f90
  401f7f:	8b 45 fc             	mov    -0x4(%ebp),%eax
  401f82:	8b e5                	mov    %ebp,%esp
  401f84:	5d                   	pop    %ebp
  401f85:	c3                   	ret    
  401f86:	cc                   	int3   
  401f87:	cc                   	int3   
  401f88:	cc                   	int3   
  401f89:	cc                   	int3   
  401f8a:	cc                   	int3   
  401f8b:	cc                   	int3   
  401f8c:	cc                   	int3   
  401f8d:	cc                   	int3   
  401f8e:	cc                   	int3   
  401f8f:	cc                   	int3   
  401f90:	55                   	push   %ebp
  401f91:	8b ec                	mov    %esp,%ebp
  401f93:	51                   	push   %ecx
  401f94:	89 4d fc             	mov    %ecx,-0x4(%ebp)
  401f97:	8b 45 fc             	mov    -0x4(%ebp),%eax
  401f9a:	c7 40 14 00 00 00 00 	movl   $0x0,0x14(%eax)
  401fa1:	8b 4d fc             	mov    -0x4(%ebp),%ecx
  401fa4:	c7 41 10 00 00 00 00 	movl   $0x0,0x10(%ecx)
  401fab:	8b 55 fc             	mov    -0x4(%ebp),%edx
  401fae:	c7 02 01 23 45 67    	movl   $0x67452301,(%edx)
  401fb4:	8b 45 fc             	mov    -0x4(%ebp),%eax
  401fb7:	c7 40 04 89 ab cd ef 	movl   $0xefcdab89,0x4(%eax)
  401fbe:	8b 4d fc             	mov    -0x4(%ebp),%ecx
  401fc1:	c7 41 08 fe dc ba 98 	movl   $0x98badcfe,0x8(%ecx)
  401fc8:	8b 55 fc             	mov    -0x4(%ebp),%edx
  401fcb:	c7 42 0c 76 54 32 10 	movl   $0x10325476,0xc(%edx)
  401fd2:	8b e5                	mov    %ebp,%esp
  401fd4:	5d                   	pop    %ebp
  401fd5:	c3                   	ret    
  401fd6:	cc                   	int3   
  401fd7:	cc                   	int3   
  401fd8:	cc                   	int3   
  401fd9:	cc                   	int3   
  401fda:	cc                   	int3   
  401fdb:	cc                   	int3   
  401fdc:	cc                   	int3   
  401fdd:	cc                   	int3   
  401fde:	cc                   	int3   
  401fdf:	cc                   	int3   
  401fe0:	55                   	push   %ebp
  401fe1:	8b ec                	mov    %esp,%ebp
  401fe3:	83 ec 14             	sub    $0x14,%esp
  401fe6:	89 4d f0             	mov    %ecx,-0x10(%ebp)
  401fe9:	8b 45 f0             	mov    -0x10(%ebp),%eax
  401fec:	8b 48 10             	mov    0x10(%eax),%ecx
  401fef:	c1 e9 03             	shr    $0x3,%ecx
  401ff2:	83 e1 3f             	and    $0x3f,%ecx
  401ff5:	89 4d f8             	mov    %ecx,-0x8(%ebp)
  401ff8:	8b 55 0c             	mov    0xc(%ebp),%edx
  401ffb:	c1 e2 03             	shl    $0x3,%edx
  401ffe:	8b 45 f0             	mov    -0x10(%ebp),%eax
  402001:	8b 48 10             	mov    0x10(%eax),%ecx
  402004:	03 ca                	add    %edx,%ecx
  402006:	89 4d ec             	mov    %ecx,-0x14(%ebp)
  402009:	8b 55 f0             	mov    -0x10(%ebp),%edx
  40200c:	8b 45 ec             	mov    -0x14(%ebp),%eax
  40200f:	89 42 10             	mov    %eax,0x10(%edx)
  402012:	8b 4d 0c             	mov    0xc(%ebp),%ecx
  402015:	c1 e1 03             	shl    $0x3,%ecx
  402018:	39 4d ec             	cmp    %ecx,-0x14(%ebp)
  40201b:	73 0f                	jae    0x40202c
  40201d:	8b 55 f0             	mov    -0x10(%ebp),%edx
  402020:	8b 42 14             	mov    0x14(%edx),%eax
  402023:	83 c0 01             	add    $0x1,%eax
  402026:	8b 4d f0             	mov    -0x10(%ebp),%ecx
  402029:	89 41 14             	mov    %eax,0x14(%ecx)
  40202c:	8b 55 0c             	mov    0xc(%ebp),%edx
  40202f:	c1 ea 1d             	shr    $0x1d,%edx
  402032:	8b 45 f0             	mov    -0x10(%ebp),%eax
  402035:	03 50 14             	add    0x14(%eax),%edx
  402038:	8b 4d f0             	mov    -0x10(%ebp),%ecx
  40203b:	89 51 14             	mov    %edx,0x14(%ecx)
  40203e:	ba 40 00 00 00       	mov    $0x40,%edx
  402043:	2b 55 f8             	sub    -0x8(%ebp),%edx
  402046:	89 55 f4             	mov    %edx,-0xc(%ebp)
  402049:	8b 45 0c             	mov    0xc(%ebp),%eax
  40204c:	3b 45 f4             	cmp    -0xc(%ebp),%eax
  40204f:	72 68                	jb     0x4020b9
  402051:	8b 4d f4             	mov    -0xc(%ebp),%ecx
  402054:	51                   	push   %ecx
  402055:	8b 55 08             	mov    0x8(%ebp),%edx
  402058:	52                   	push   %edx
  402059:	8b 45 f8             	mov    -0x8(%ebp),%eax
  40205c:	8b 4d f0             	mov    -0x10(%ebp),%ecx
  40205f:	8d 54 01 18          	lea    0x18(%ecx,%eax,1),%edx
  402063:	52                   	push   %edx
  402064:	e8 15 03 00 00       	call   0x40237e
  402069:	83 c4 0c             	add    $0xc,%esp
  40206c:	8b 45 f0             	mov    -0x10(%ebp),%eax
  40206f:	83 c0 18             	add    $0x18,%eax
  402072:	50                   	push   %eax
  402073:	8b 4d f0             	mov    -0x10(%ebp),%ecx
  402076:	51                   	push   %ecx
  402077:	e8 84 ef ff ff       	call   0x401000
  40207c:	83 c4 08             	add    $0x8,%esp
  40207f:	8b 55 f4             	mov    -0xc(%ebp),%edx
  402082:	89 55 fc             	mov    %edx,-0x4(%ebp)
  402085:	eb 09                	jmp    0x402090
  402087:	8b 45 fc             	mov    -0x4(%ebp),%eax
  40208a:	83 c0 40             	add    $0x40,%eax
  40208d:	89 45 fc             	mov    %eax,-0x4(%ebp)
  402090:	8b 4d fc             	mov    -0x4(%ebp),%ecx
  402093:	83 c1 3f             	add    $0x3f,%ecx
  402096:	3b 4d 0c             	cmp    0xc(%ebp),%ecx
  402099:	73 15                	jae    0x4020b0
  40209b:	8b 55 08             	mov    0x8(%ebp),%edx
  40209e:	03 55 fc             	add    -0x4(%ebp),%edx
  4020a1:	52                   	push   %edx
  4020a2:	8b 45 f0             	mov    -0x10(%ebp),%eax
  4020a5:	50                   	push   %eax
  4020a6:	e8 55 ef ff ff       	call   0x401000
  4020ab:	83 c4 08             	add    $0x8,%esp
  4020ae:	eb d7                	jmp    0x402087
  4020b0:	c7 45 f8 00 00 00 00 	movl   $0x0,-0x8(%ebp)
  4020b7:	eb 07                	jmp    0x4020c0
  4020b9:	c7 45 fc 00 00 00 00 	movl   $0x0,-0x4(%ebp)
  4020c0:	8b 4d 0c             	mov    0xc(%ebp),%ecx
  4020c3:	2b 4d fc             	sub    -0x4(%ebp),%ecx
  4020c6:	51                   	push   %ecx
  4020c7:	8b 55 08             	mov    0x8(%ebp),%edx
  4020ca:	03 55 fc             	add    -0x4(%ebp),%edx
  4020cd:	52                   	push   %edx
  4020ce:	8b 45 f8             	mov    -0x8(%ebp),%eax
  4020d1:	8b 4d f0             	mov    -0x10(%ebp),%ecx
  4020d4:	8d 54 01 18          	lea    0x18(%ecx,%eax,1),%edx
  4020d8:	52                   	push   %edx
  4020d9:	e8 a0 02 00 00       	call   0x40237e
  4020de:	83 c4 0c             	add    $0xc,%esp
  4020e1:	8b e5                	mov    %ebp,%esp
  4020e3:	5d                   	pop    %ebp
  4020e4:	c2 08 00             	ret    $0x8
  4020e7:	cc                   	int3   
  4020e8:	cc                   	int3   
  4020e9:	cc                   	int3   
  4020ea:	cc                   	int3   
  4020eb:	cc                   	int3   
  4020ec:	cc                   	int3   
  4020ed:	cc                   	int3   
  4020ee:	cc                   	int3   
  4020ef:	cc                   	int3   
  4020f0:	55                   	push   %ebp
  4020f1:	8b ec                	mov    %esp,%ebp
  4020f3:	83 ec 18             	sub    $0x18,%esp
  4020f6:	89 4d ec             	mov    %ecx,-0x14(%ebp)
  4020f9:	6a 08                	push   $0x8
  4020fb:	8b 45 ec             	mov    -0x14(%ebp),%eax
  4020fe:	83 c0 10             	add    $0x10,%eax
  402101:	50                   	push   %eax
  402102:	8d 4d f4             	lea    -0xc(%ebp),%ecx
  402105:	51                   	push   %ecx
  402106:	e8 45 fd ff ff       	call   0x401e50
  40210b:	83 c4 0c             	add    $0xc,%esp
  40210e:	8b 55 ec             	mov    -0x14(%ebp),%edx
  402111:	8b 42 10             	mov    0x10(%edx),%eax
  402114:	c1 e8 03             	shr    $0x3,%eax
  402117:	83 e0 3f             	and    $0x3f,%eax
  40211a:	89 45 fc             	mov    %eax,-0x4(%ebp)
  40211d:	83 7d fc 38          	cmpl   $0x38,-0x4(%ebp)
  402121:	73 0d                	jae    0x402130
  402123:	b9 38 00 00 00       	mov    $0x38,%ecx
  402128:	2b 4d fc             	sub    -0x4(%ebp),%ecx
  40212b:	89 4d e8             	mov    %ecx,-0x18(%ebp)
  40212e:	eb 0b                	jmp    0x40213b
  402130:	ba 78 00 00 00       	mov    $0x78,%edx
  402135:	2b 55 fc             	sub    -0x4(%ebp),%edx
  402138:	89 55 e8             	mov    %edx,-0x18(%ebp)
  40213b:	8b 45 e8             	mov    -0x18(%ebp),%eax
  40213e:	89 45 f0             	mov    %eax,-0x10(%ebp)
  402141:	8b 4d f0             	mov    -0x10(%ebp),%ecx
  402144:	51                   	push   %ecx
  402145:	68 00 40 40 00       	push   $0x404000
  40214a:	8b 4d ec             	mov    -0x14(%ebp),%ecx
  40214d:	e8 8e fe ff ff       	call   0x401fe0
  402152:	6a 08                	push   $0x8
  402154:	8d 55 f4             	lea    -0xc(%ebp),%edx
  402157:	52                   	push   %edx
  402158:	8b 4d ec             	mov    -0x14(%ebp),%ecx
  40215b:	e8 80 fe ff ff       	call   0x401fe0
  402160:	6a 10                	push   $0x10
  402162:	8b 45 ec             	mov    -0x14(%ebp),%eax
  402165:	50                   	push   %eax
  402166:	8b 4d ec             	mov    -0x14(%ebp),%ecx
  402169:	83 c1 58             	add    $0x58,%ecx
  40216c:	51                   	push   %ecx
  40216d:	e8 de fc ff ff       	call   0x401e50
  402172:	83 c4 0c             	add    $0xc,%esp
  402175:	6a 58                	push   $0x58
  402177:	6a 00                	push   $0x0
  402179:	8b 55 ec             	mov    -0x14(%ebp),%edx
  40217c:	52                   	push   %edx
  40217d:	e8 f6 01 00 00       	call   0x402378
  402182:	83 c4 0c             	add    $0xc,%esp
  402185:	8b 4d ec             	mov    -0x14(%ebp),%ecx
  402188:	e8 13 00 00 00       	call   0x4021a0
  40218d:	8b e5                	mov    %ebp,%esp
  40218f:	5d                   	pop    %ebp
  402190:	c3                   	ret    
  402191:	cc                   	int3   
  402192:	cc                   	int3   
  402193:	cc                   	int3   
  402194:	cc                   	int3   
  402195:	cc                   	int3   
  402196:	cc                   	int3   
  402197:	cc                   	int3   
  402198:	cc                   	int3   
  402199:	cc                   	int3   
  40219a:	cc                   	int3   
  40219b:	cc                   	int3   
  40219c:	cc                   	int3   
  40219d:	cc                   	int3   
  40219e:	cc                   	int3   
  40219f:	cc                   	int3   
  4021a0:	55                   	push   %ebp
  4021a1:	8b ec                	mov    %esp,%ebp
  4021a3:	83 ec 08             	sub    $0x8,%esp
  4021a6:	89 4d f8             	mov    %ecx,-0x8(%ebp)
  4021a9:	c7 45 fc 00 00 00 00 	movl   $0x0,-0x4(%ebp)
  4021b0:	eb 09                	jmp    0x4021bb
  4021b2:	8b 45 fc             	mov    -0x4(%ebp),%eax
  4021b5:	83 c0 01             	add    $0x1,%eax
  4021b8:	89 45 fc             	mov    %eax,-0x4(%ebp)
  4021bb:	83 7d fc 10          	cmpl   $0x10,-0x4(%ebp)
  4021bf:	7d 25                	jge    0x4021e6
  4021c1:	8b 4d f8             	mov    -0x8(%ebp),%ecx
  4021c4:	03 4d fc             	add    -0x4(%ebp),%ecx
  4021c7:	0f b6 51 58          	movzbl 0x58(%ecx),%edx
  4021cb:	52                   	push   %edx
  4021cc:	68 38 30 40 00       	push   $0x403038
  4021d1:	8b 45 fc             	mov    -0x4(%ebp),%eax
  4021d4:	8b 4d f8             	mov    -0x8(%ebp),%ecx
  4021d7:	8d 54 41 68          	lea    0x68(%ecx,%eax,2),%edx
  4021db:	52                   	push   %edx
  4021dc:	e8 a3 01 00 00       	call   0x402384
  4021e1:	83 c4 0c             	add    $0xc,%esp
  4021e4:	eb cc                	jmp    0x4021b2
  4021e6:	8b e5                	mov    %ebp,%esp
  4021e8:	5d                   	pop    %ebp
  4021e9:	c3                   	ret    
  4021ea:	cc                   	int3   
  4021eb:	cc                   	int3   
  4021ec:	cc                   	int3   
  4021ed:	cc                   	int3   
  4021ee:	cc                   	int3   
  4021ef:	cc                   	int3   
  4021f0:	55                   	push   %ebp
  4021f1:	8b ec                	mov    %esp,%ebp
  4021f3:	51                   	push   %ecx
  4021f4:	89 4d fc             	mov    %ecx,-0x4(%ebp)
  4021f7:	8b 4d fc             	mov    -0x4(%ebp),%ecx
  4021fa:	e8 91 fd ff ff       	call   0x401f90
  4021ff:	8b 45 0c             	mov    0xc(%ebp),%eax
  402202:	50                   	push   %eax
  402203:	8b 4d 08             	mov    0x8(%ebp),%ecx
  402206:	51                   	push   %ecx
  402207:	8b 4d fc             	mov    -0x4(%ebp),%ecx
  40220a:	e8 d1 fd ff ff       	call   0x401fe0
  40220f:	8b 4d fc             	mov    -0x4(%ebp),%ecx
  402212:	e8 d9 fe ff ff       	call   0x4020f0
  402217:	8b 45 fc             	mov    -0x4(%ebp),%eax
  40221a:	83 c0 68             	add    $0x68,%eax
  40221d:	8b e5                	mov    %ebp,%esp
  40221f:	5d                   	pop    %ebp
  402220:	c2 08 00             	ret    $0x8
  402223:	cc                   	int3   
  402224:	cc                   	int3   
  402225:	cc                   	int3   
  402226:	cc                   	int3   
  402227:	cc                   	int3   
  402228:	cc                   	int3   
  402229:	cc                   	int3   
  40222a:	cc                   	int3   
  40222b:	cc                   	int3   
  40222c:	cc                   	int3   
  40222d:	cc                   	int3   
  40222e:	cc                   	int3   
  40222f:	cc                   	int3   
  402230:	55                   	push   %ebp
  402231:	8b ec                	mov    %esp,%ebp
  402233:	83 ec 14             	sub    $0x14,%esp
  402236:	89 4d fc             	mov    %ecx,-0x4(%ebp)
  402239:	8b 4d fc             	mov    -0x4(%ebp),%ecx
  40223c:	e8 4f fd ff ff       	call   0x401f90
  402241:	8b 45 08             	mov    0x8(%ebp),%eax
  402244:	89 45 f8             	mov    %eax,-0x8(%ebp)
  402247:	8b 4d f8             	mov    -0x8(%ebp),%ecx
  40224a:	83 c1 01             	add    $0x1,%ecx
  40224d:	89 4d f4             	mov    %ecx,-0xc(%ebp)
  402250:	8b 55 f8             	mov    -0x8(%ebp),%edx
  402253:	8a 02                	mov    (%edx),%al
  402255:	88 45 f3             	mov    %al,-0xd(%ebp)
  402258:	83 45 f8 01          	addl   $0x1,-0x8(%ebp)
  40225c:	80 7d f3 00          	cmpb   $0x0,-0xd(%ebp)
  402260:	75 ee                	jne    0x402250
  402262:	8b 4d f8             	mov    -0x8(%ebp),%ecx
  402265:	2b 4d f4             	sub    -0xc(%ebp),%ecx
  402268:	89 4d ec             	mov    %ecx,-0x14(%ebp)
  40226b:	8b 55 ec             	mov    -0x14(%ebp),%edx
  40226e:	52                   	push   %edx
  40226f:	8b 45 08             	mov    0x8(%ebp),%eax
  402272:	50                   	push   %eax
  402273:	8b 4d fc             	mov    -0x4(%ebp),%ecx
  402276:	e8 65 fd ff ff       	call   0x401fe0
  40227b:	8b 4d fc             	mov    -0x4(%ebp),%ecx
  40227e:	e8 6d fe ff ff       	call   0x4020f0
  402283:	8b 45 fc             	mov    -0x4(%ebp),%eax
  402286:	83 c0 68             	add    $0x68,%eax
  402289:	8b e5                	mov    %ebp,%esp
  40228b:	5d                   	pop    %ebp
  40228c:	c2 04 00             	ret    $0x4
  40228f:	cc                   	int3   
  402290:	55                   	push   %ebp
  402291:	8b ec                	mov    %esp,%ebp
  402293:	8b 45 08             	mov    0x8(%ebp),%eax
  402296:	50                   	push   %eax
  402297:	b9 40 40 40 00       	mov    $0x404040,%ecx
  40229c:	e8 8f ff ff ff       	call   0x402230
  4022a1:	5d                   	pop    %ebp
  4022a2:	c3                   	ret    
  4022a3:	cc                   	int3   
  4022a4:	cc                   	int3   
  4022a5:	cc                   	int3   
  4022a6:	cc                   	int3   
  4022a7:	cc                   	int3   
  4022a8:	cc                   	int3   
  4022a9:	cc                   	int3   
  4022aa:	cc                   	int3   
  4022ab:	cc                   	int3   
  4022ac:	cc                   	int3   
  4022ad:	cc                   	int3   
  4022ae:	cc                   	int3   
  4022af:	cc                   	int3   
  4022b0:	55                   	push   %ebp
  4022b1:	8b ec                	mov    %esp,%ebp
  4022b3:	83 ec 28             	sub    $0x28,%esp
  4022b6:	c6 45 d8 46          	movb   $0x46,-0x28(%ebp)
  4022ba:	c6 45 d9 4c          	movb   $0x4c,-0x27(%ebp)
  4022be:	c6 45 da 41          	movb   $0x41,-0x26(%ebp)
  4022c2:	c6 45 db 47          	movb   $0x47,-0x25(%ebp)
  4022c6:	c6 45 dc 7b          	movb   $0x7b,-0x24(%ebp)
  4022ca:	c6 45 dd 53          	movb   $0x53,-0x23(%ebp)
  4022ce:	c6 45 de 54          	movb   $0x54,-0x22(%ebp)
  4022d2:	c6 45 df 41          	movb   $0x41,-0x21(%ebp)
  4022d6:	c6 45 e0 43          	movb   $0x43,-0x20(%ebp)
  4022da:	c6 45 e1 4b          	movb   $0x4b,-0x1f(%ebp)
  4022de:	c6 45 e2 2d          	movb   $0x2d,-0x1e(%ebp)
  4022e2:	c6 45 e3 53          	movb   $0x53,-0x1d(%ebp)
  4022e6:	c6 45 e4 54          	movb   $0x54,-0x1c(%ebp)
  4022ea:	c6 45 e5 52          	movb   $0x52,-0x1b(%ebp)
  4022ee:	c6 45 e6 49          	movb   $0x49,-0x1a(%ebp)
  4022f2:	c6 45 e7 4e          	movb   $0x4e,-0x19(%ebp)
  4022f6:	c6 45 e8 47          	movb   $0x47,-0x18(%ebp)
  4022fa:	c6 45 e9 53          	movb   $0x53,-0x17(%ebp)
  4022fe:	c6 45 ea 2d          	movb   $0x2d,-0x16(%ebp)
  402302:	c6 45 eb 41          	movb   $0x41,-0x15(%ebp)
  402306:	c6 45 ec 52          	movb   $0x52,-0x14(%ebp)
  40230a:	c6 45 ed 45          	movb   $0x45,-0x13(%ebp)
  40230e:	c6 45 ee 2d          	movb   $0x2d,-0x12(%ebp)
  402312:	c6 45 ef 42          	movb   $0x42,-0x11(%ebp)
  402316:	c6 45 f0 45          	movb   $0x45,-0x10(%ebp)
  40231a:	c6 45 f1 53          	movb   $0x53,-0xf(%ebp)
  40231e:	c6 45 f2 54          	movb   $0x54,-0xe(%ebp)
  402322:	c6 45 f3 2d          	movb   $0x2d,-0xd(%ebp)
  402326:	c6 45 f4 53          	movb   $0x53,-0xc(%ebp)
  40232a:	c6 45 f5 54          	movb   $0x54,-0xb(%ebp)
  40232e:	c6 45 f6 52          	movb   $0x52,-0xa(%ebp)
  402332:	c6 45 f7 49          	movb   $0x49,-0x9(%ebp)
  402336:	c6 45 f8 4e          	movb   $0x4e,-0x8(%ebp)
  40233a:	c6 45 f9 47          	movb   $0x47,-0x7(%ebp)
  40233e:	c6 45 fa 53          	movb   $0x53,-0x6(%ebp)
  402342:	c6 45 fb 7d          	movb   $0x7d,-0x5(%ebp)
  402346:	8d 45 d8             	lea    -0x28(%ebp),%eax
  402349:	50                   	push   %eax
  40234a:	e8 41 ff ff ff       	call   0x402290
  40234f:	83 c4 04             	add    $0x4,%esp
  402352:	89 45 fc             	mov    %eax,-0x4(%ebp)
  402355:	6a 30                	push   $0x30
  402357:	68 20 30 40 00       	push   $0x403020
  40235c:	8b 4d fc             	mov    -0x4(%ebp),%ecx
  40235f:	51                   	push   %ecx
  402360:	6a 00                	push   $0x0
  402362:	ff 15 08 30 40 00    	call   *0x403008
  402368:	6a 00                	push   $0x0
  40236a:	ff 15 00 30 40 00    	call   *0x403000
  402370:	33 c0                	xor    %eax,%eax
  402372:	8b e5                	mov    %ebp,%esp
  402374:	5d                   	pop    %ebp
  402375:	c2 10 00             	ret    $0x10
  402378:	ff 25 18 30 40 00    	jmp    *0x403018
  40237e:	ff 25 14 30 40 00    	jmp    *0x403014
  402384:	ff 25 10 30 40 00    	jmp    *0x403010
  40238a:	cc                   	int3   
  40238b:	cc                   	int3   
  40238c:	cc                   	int3   
  40238d:	cc                   	int3   
  40238e:	cc                   	int3   
  40238f:	cc                   	int3   
  402390:	55                   	push   %ebp
  402391:	8b ec                	mov    %esp,%ebp
  402393:	b9 40 40 40 00       	mov    $0x404040,%ecx
  402398:	e8 d3 fb ff ff       	call   0x401f70
  40239d:	5d                   	pop    %ebp
  40239e:	c3                   	ret    
